; Listing generated by Microsoft (R) Optimizing Compiler Version 19.23.28106.4 

	TITLE	C:\github\JimFawcett\CppStory\Chapter1-overloading\Overloading.cpp
	.686P
	.XMM
	include listing.inc
	.model	flat

INCLUDELIB MSVCRTD
INCLUDELIB OLDNAMES

msvcjmc	SEGMENT
__231D85A1_cstddef DB 01H
__E410F33D_corecrt_math@h DB 01H
__36B85FDF_stdlib@h DB 01H
__86D65F0C_cstdlib DB 01H
__FFC6471F_type_traits DB 01H
__0A074437_vcruntime_new@h DB 01H
__A2957829_malloc@h DB 01H
__69245D52_vcruntime_exception@h DB 01H
__536DB091_exception DB 01H
__23AD7809_corecrt_stdio_config@h DB 01H
__DD74D44A_corecrt_wstdio@h DB 01H
__4B3541EE_stdio@h DB 01H
__82CA083D_corecrt_memcpy_s@h DB 01H
__990BA27D_corecrt_wconio@h DB 01H
__D837D19F_corecrt_wio@h DB 01H
__61E6ED1F_corecrt_wstring@h DB 01H
__FE12CC83_corecrt_wtime@h DB 01H
__01EE68DC_stat@h DB 01H
__B513A213_wchar@h DB 01H
__843B0F21_limits DB 01H
__F8BB3D43_corecrt_memory@h DB 01H
__B0CBCB7B_string@h DB 01H
__86E03ACD_xutility DB 01H
__DB4EB944_xmemory DB 01H
__EF3496CC_optional DB 01H
__CC282F90_tuple DB 01H
__C9317CBB_xpolymorphic_allocator@h DB 01H
__6A0B36D1_cmath DB 01H
__AF9D3FD8_xstring DB 01H
__DA238ACC_stdexcept DB 01H
__65AE1ACD_xcall_once@h DB 01H
__DAF308ED_system_error DB 01H
__36900320_vcruntime_typeinfo@h DB 01H
__F63FC9D4_typeinfo DB 01H
__389503AF_memory DB 01H
__14D054A0_xfacet DB 01H
__941D13D0_ctype@h DB 01H
__E9B62A1C_xlocinfo DB 01H
__70A34BE9_xlocale DB 01H
__D0535D0F_xiosbase DB 01H
__EE242DFE_xlocnum DB 01H
__D17CECDD_ios DB 01H
__559208D6_Overloading@cpp DB 01H
__F20AC291_initializer_list DB 01H
__C9967FC1_vector DB 01H
__0063A417_istream DB 01H
__63B3912D_ostream DB 01H
__D8833270_streambuf DB 01H
__3B898286_xsmf_control@h DB 01H
__48D2DAA7_iosfwd DB 01H
__B1DBDA87_utility DB 01H
__46C44D95_xstddef DB 01H
__59613C47_xatomic@h DB 01H
__00AAB962_predefined C++ types (compiler internal) DB 01H
msvcjmc	ENDS
PUBLIC	?__empty_global_delete@@YAXPAX@Z		; __empty_global_delete
PUBLIC	?__empty_global_delete@@YAXPAXI@Z		; __empty_global_delete
PUBLIC	?__empty_global_delete@@YAXPAXW4align_val_t@std@@@Z ; __empty_global_delete
PUBLIC	?__empty_global_delete@@YAXPAXIW4align_val_t@std@@@Z ; __empty_global_delete
PUBLIC	??2@YAPAXIPAX@Z					; operator new
PUBLIC	??0exception@std@@QAE@XZ			; std::exception::exception
PUBLIC	??0exception@std@@QAE@QBD@Z			; std::exception::exception
PUBLIC	??0exception@std@@QAE@QBDH@Z			; std::exception::exception
PUBLIC	??0exception@std@@QAE@ABV01@@Z			; std::exception::exception
PUBLIC	??1exception@std@@UAE@XZ			; std::exception::~exception
PUBLIC	?what@exception@std@@UBEPBDXZ			; std::exception::what
PUBLIC	??_Gexception@std@@UAEPAXI@Z			; std::exception::`scalar deleting destructor'
PUBLIC	??0bad_alloc@std@@AAE@QBD@Z			; std::bad_alloc::bad_alloc
PUBLIC	??1bad_alloc@std@@UAE@XZ			; std::bad_alloc::~bad_alloc
PUBLIC	??0bad_alloc@std@@QAE@ABV01@@Z			; std::bad_alloc::bad_alloc
PUBLIC	??_Gbad_alloc@std@@UAEPAXI@Z			; std::bad_alloc::`scalar deleting destructor'
PUBLIC	??0bad_array_new_length@std@@QAE@XZ		; std::bad_array_new_length::bad_array_new_length
PUBLIC	??1bad_array_new_length@std@@UAE@XZ		; std::bad_array_new_length::~bad_array_new_length
PUBLIC	??0bad_array_new_length@std@@QAE@ABV01@@Z	; std::bad_array_new_length::bad_array_new_length
PUBLIC	??_Gbad_array_new_length@std@@UAEPAXI@Z		; std::bad_array_new_length::`scalar deleting destructor'
PUBLIC	?_Throw_bad_array_new_length@std@@YAXXZ		; std::_Throw_bad_array_new_length
PUBLIC	?max@?$numeric_limits@H@std@@SAHXZ		; std::numeric_limits<int>::max
PUBLIC	?_Allocate@_Default_allocate_traits@std@@SAPAXI@Z ; std::_Default_allocate_traits::_Allocate
PUBLIC	?_Adjust_manually_vector_aligned@std@@YAXAAPAXAAI@Z ; std::_Adjust_manually_vector_aligned
PUBLIC	??$_Convert_size@I@std@@YAII@Z			; std::_Convert_size<unsigned int>
PUBLIC	??0_Container_proxy@std@@QAE@PAU_Container_base12@1@@Z ; std::_Container_proxy::_Container_proxy
PUBLIC	??0_Container_base12@std@@QAE@XZ		; std::_Container_base12::_Container_base12
PUBLIC	?_Orphan_all@_Container_base12@std@@QAEXXZ	; std::_Container_base12::_Orphan_all
PUBLIC	??$_Construct_in_place@U_Container_proxy@std@@PAU_Container_base12@2@@std@@YAXAAU_Container_proxy@0@$$QAPAU_Container_base12@0@@Z ; std::_Construct_in_place<std::_Container_proxy,std::_Container_base12 *>
PUBLIC	?_Release@_Basic_container_proxy_ptr12@std@@QAEXXZ ; std::_Basic_container_proxy_ptr12::_Release
PUBLIC	??$addressof@U_Container_base12@std@@@std@@YAPAU_Container_base12@0@AAU10@@Z ; std::addressof<std::_Container_base12>
PUBLIC	?what@bad_optional_access@std@@UBEPBDXZ		; std::bad_optional_access::what
PUBLIC	??0bad_optional_access@std@@QAE@XZ		; std::bad_optional_access::bad_optional_access
PUBLIC	??1bad_optional_access@std@@UAE@XZ		; std::bad_optional_access::~bad_optional_access
PUBLIC	??0bad_optional_access@std@@QAE@ABV01@@Z	; std::bad_optional_access::bad_optional_access
PUBLIC	??_Gbad_optional_access@std@@UAEPAXI@Z		; std::bad_optional_access::`scalar deleting destructor'
PUBLIC	?_Throw_bad_optional_access@std@@YAXXZ		; std::_Throw_bad_optional_access
PUBLIC	?length@?$_Narrow_char_traits@DH@std@@SAIQBD@Z	; std::_Narrow_char_traits<char,int>::length
PUBLIC	?eq_int_type@?$_Narrow_char_traits@DH@std@@SA_NABH0@Z ; std::_Narrow_char_traits<char,int>::eq_int_type
PUBLIC	?eof@?$_Narrow_char_traits@DH@std@@SAHXZ	; std::_Narrow_char_traits<char,int>::eof
PUBLIC	??$_Min_value@I@std@@YAABIABI0@Z		; std::_Min_value<unsigned int>
PUBLIC	?firstAndLast@@YA?AU?$pair@NN@std@@QANI@Z	; firstAndLast
PUBLIC	??$?0AANAAN$0A@@?$pair@NN@std@@QAE@AAN0@Z	; std::pair<double,double>::pair<double,double><double &,double &,0>
PUBLIC	?firstAndLast@@YA?AU?$pair@HH@std@@ABV?$vector@HV?$allocator@H@std@@@2@@Z ; firstAndLast
PUBLIC	??0?$allocator@H@std@@QAE@XZ			; std::allocator<int>::allocator<int>
PUBLIC	?deallocate@?$allocator@H@std@@QAEXQAHI@Z	; std::allocator<int>::deallocate
PUBLIC	?allocate@?$allocator@H@std@@QAEPAHI@Z		; std::allocator<int>::allocate
PUBLIC	?max_size@?$_Default_allocator_traits@V?$allocator@H@std@@@std@@SAIABV?$allocator@H@2@@Z ; std::_Default_allocator_traits<std::allocator<int> >::max_size
PUBLIC	??0?$vector@HV?$allocator@H@std@@@std@@QAE@V?$initializer_list@H@1@ABV?$allocator@H@1@@Z ; std::vector<int,std::allocator<int> >::vector<int,std::allocator<int> >
PUBLIC	??1?$vector@HV?$allocator@H@std@@@std@@QAE@XZ	; std::vector<int,std::allocator<int> >::~vector<int,std::allocator<int> >
PUBLIC	?size@?$vector@HV?$allocator@H@std@@@std@@QBEIXZ ; std::vector<int,std::allocator<int> >::size
PUBLIC	?max_size@?$vector@HV?$allocator@H@std@@@std@@QBEIXZ ; std::vector<int,std::allocator<int> >::max_size
PUBLIC	??A?$vector@HV?$allocator@H@std@@@std@@QBEABHI@Z ; std::vector<int,std::allocator<int> >::operator[]
PUBLIC	?_Destroy@?$vector@HV?$allocator@H@std@@@std@@AAEXPAH0@Z ; std::vector<int,std::allocator<int> >::_Destroy
PUBLIC	?_Buy_raw@?$vector@HV?$allocator@H@std@@@std@@AAEXI@Z ; std::vector<int,std::allocator<int> >::_Buy_raw
PUBLIC	?_Buy_nonzero@?$vector@HV?$allocator@H@std@@@std@@AAEXI@Z ; std::vector<int,std::allocator<int> >::_Buy_nonzero
PUBLIC	?_Tidy@?$vector@HV?$allocator@H@std@@@std@@AAEXXZ ; std::vector<int,std::allocator<int> >::_Tidy
PUBLIC	?_Xlength@?$vector@HV?$allocator@H@std@@@std@@CAXXZ ; std::vector<int,std::allocator<int> >::_Xlength
PUBLIC	?_Getal@?$vector@HV?$allocator@H@std@@@std@@AAEAAV?$allocator@H@2@XZ ; std::vector<int,std::allocator<int> >::_Getal
PUBLIC	?_Getal@?$vector@HV?$allocator@H@std@@@std@@ABEABV?$allocator@H@2@XZ ; std::vector<int,std::allocator<int> >::_Getal
PUBLIC	??0?$_Vector_val@U?$_Simple_types@H@std@@@std@@QAE@XZ ; std::_Vector_val<std::_Simple_types<int> >::_Vector_val<std::_Simple_types<int> >
PUBLIC	?_Get_first@?$_Compressed_pair@V?$allocator@H@std@@V?$_Vector_val@U?$_Simple_types@H@std@@@2@$00@std@@QAEAAV?$allocator@H@2@XZ ; std::_Compressed_pair<std::allocator<int>,std::_Vector_val<std::_Simple_types<int> >,1>::_Get_first
PUBLIC	?_Get_first@?$_Compressed_pair@V?$allocator@H@std@@V?$_Vector_val@U?$_Simple_types@H@std@@@2@$00@std@@QBEABV?$allocator@H@2@XZ ; std::_Compressed_pair<std::allocator<int>,std::_Vector_val<std::_Simple_types<int> >,1>::_Get_first
PUBLIC	?__autoclassinit2@?$vector@HV?$allocator@H@std@@@std@@QAEXI@Z ; std::vector<int,std::allocator<int> >::__autoclassinit2
PUBLIC	??$?0HH$0A@@?$pair@HH@std@@QAE@ABH0@Z		; std::pair<int,int>::pair<int,int><int,int,0>
PUBLIC	?firstAndLastOpt@@YA?AV?$optional@U?$pair@NN@std@@@std@@QANI@Z ; firstAndLastOpt
PUBLIC	??$?4U?$pair@NN@std@@$0A@@?$pair@NN@std@@QAEAAU01@$$QAU01@@Z ; std::pair<double,double>::operator=<std::pair<double,double>,0>
PUBLIC	??0?$_Optional_destruct_base@U?$pair@NN@std@@$00@std@@QAE@XZ ; std::_Optional_destruct_base<std::pair<double,double>,1>::_Optional_destruct_base<std::pair<double,double>,1>
PUBLIC	?_Get@?$_Optional_construct_base@U?$pair@NN@std@@@std@@QGAEAAU?$pair@NN@2@XZ ; std::_Optional_construct_base<std::pair<double,double> >::_Get
PUBLIC	??0?$_Optional_construct_base@U?$pair@NN@std@@@std@@QAE@XZ ; std::_Optional_construct_base<std::pair<double,double> >::_Optional_construct_base<std::pair<double,double> >
PUBLIC	??0?$_Non_trivial_copy_assign@U?$_Optional_construct_base@U?$pair@NN@std@@@std@@U?$pair@NN@2@@std@@QAE@XZ ; std::_Non_trivial_copy_assign<std::_Optional_construct_base<std::pair<double,double> >,std::pair<double,double> >::_Non_trivial_copy_assign<std::_Optional_construct_base<std::pair<double,double> >,std::pair<double,double> >
PUBLIC	??0?$_Non_trivial_move_assign@U?$_Optional_construct_base@U?$pair@NN@std@@@std@@U?$pair@NN@2@@std@@QAE@XZ ; std::_Non_trivial_move_assign<std::_Optional_construct_base<std::pair<double,double> >,std::pair<double,double> >::_Non_trivial_move_assign<std::_Optional_construct_base<std::pair<double,double> >,std::pair<double,double> >
PUBLIC	??0?$optional@U?$pair@NN@std@@@std@@QAE@XZ	; std::optional<std::pair<double,double> >::optional<std::pair<double,double> >
PUBLIC	?has_value@?$optional@U?$pair@NN@std@@@std@@QBE_NXZ ; std::optional<std::pair<double,double> >::has_value
PUBLIC	?value@?$optional@U?$pair@NN@std@@@std@@QGAEAAU?$pair@NN@2@XZ ; std::optional<std::pair<double,double> >::value
PUBLIC	??$?4U?$pair@NN@std@@X@?$optional@U?$pair@NN@std@@@std@@QAEAAV01@$$QAU?$pair@NN@1@@Z ; std::optional<std::pair<double,double> >::operator=<std::pair<double,double>,void>
PUBLIC	?firstAndLastOpt@@YA?AV?$optional@U?$pair@HH@std@@@std@@ABV?$vector@HV?$allocator@H@std@@@2@@Z ; firstAndLastOpt
PUBLIC	??$?4U?$pair@HH@std@@$0A@@?$pair@HH@std@@QAEAAU01@$$QAU01@@Z ; std::pair<int,int>::operator=<std::pair<int,int>,0>
PUBLIC	??0?$_Optional_destruct_base@U?$pair@HH@std@@$00@std@@QAE@XZ ; std::_Optional_destruct_base<std::pair<int,int>,1>::_Optional_destruct_base<std::pair<int,int>,1>
PUBLIC	?_Get@?$_Optional_construct_base@U?$pair@HH@std@@@std@@QGAEAAU?$pair@HH@2@XZ ; std::_Optional_construct_base<std::pair<int,int> >::_Get
PUBLIC	??0?$_Optional_construct_base@U?$pair@HH@std@@@std@@QAE@XZ ; std::_Optional_construct_base<std::pair<int,int> >::_Optional_construct_base<std::pair<int,int> >
PUBLIC	??0?$_Non_trivial_copy_assign@U?$_Optional_construct_base@U?$pair@HH@std@@@std@@U?$pair@HH@2@@std@@QAE@XZ ; std::_Non_trivial_copy_assign<std::_Optional_construct_base<std::pair<int,int> >,std::pair<int,int> >::_Non_trivial_copy_assign<std::_Optional_construct_base<std::pair<int,int> >,std::pair<int,int> >
PUBLIC	??0?$_Non_trivial_move_assign@U?$_Optional_construct_base@U?$pair@HH@std@@@std@@U?$pair@HH@2@@std@@QAE@XZ ; std::_Non_trivial_move_assign<std::_Optional_construct_base<std::pair<int,int> >,std::pair<int,int> >::_Non_trivial_move_assign<std::_Optional_construct_base<std::pair<int,int> >,std::pair<int,int> >
PUBLIC	??0?$optional@U?$pair@HH@std@@@std@@QAE@XZ	; std::optional<std::pair<int,int> >::optional<std::pair<int,int> >
PUBLIC	?has_value@?$optional@U?$pair@HH@std@@@std@@QBE_NXZ ; std::optional<std::pair<int,int> >::has_value
PUBLIC	?value@?$optional@U?$pair@HH@std@@@std@@QGAEAAU?$pair@HH@2@XZ ; std::optional<std::pair<int,int> >::value
PUBLIC	??$?4U?$pair@HH@std@@X@?$optional@U?$pair@HH@std@@@std@@QAEAAV01@$$QAU?$pair@HH@1@@Z ; std::optional<std::pair<int,int> >::operator=<std::pair<int,int>,void>
PUBLIC	_main
PUBLIC	??$?6U?$char_traits@D@std@@@std@@YAAAV?$basic_ostream@DU?$char_traits@D@std@@@0@AAV10@PBD@Z ; std::operator<<<std::char_traits<char> >
PUBLIC	??0?$initializer_list@H@std@@QAE@PBH0@Z		; std::initializer_list<int>::initializer_list<int>
PUBLIC	?begin@?$initializer_list@H@std@@QBEPBHXZ	; std::initializer_list<int>::begin
PUBLIC	?end@?$initializer_list@H@std@@QBEPBHXZ		; std::initializer_list<int>::end
PUBLIC	??$<move>@AAU?$pair@NN@std@@@@YA$$QAU?$pair@NN@std@@AAU01@@Z ; <move><std::pair<double,double> &>
PUBLIC	??$get@$0A@NN@std@@YA$$QAN$$QAU?$pair@NN@0@@Z	; std::get<0,double,double>
PUBLIC	??$get@$0A@NN@std@@YAAANAAU?$pair@NN@0@@Z	; std::get<0,double,double>
PUBLIC	??$get@$00NN@std@@YA$$QAN$$QAU?$pair@NN@0@@Z	; std::get<1,double,double>
PUBLIC	??$get@$00NN@std@@YAAANAAU?$pair@NN@0@@Z	; std::get<1,double,double>
PUBLIC	??$<move>@AAU?$pair@HH@std@@@@YA$$QAU?$pair@HH@std@@AAU01@@Z ; <move><std::pair<int,int> &>
PUBLIC	??$get@$0A@HH@std@@YA$$QAH$$QAU?$pair@HH@0@@Z	; std::get<0,int,int>
PUBLIC	??$get@$0A@HH@std@@YAAAHAAU?$pair@HH@0@@Z	; std::get<0,int,int>
PUBLIC	??$get@$00HH@std@@YA$$QAH$$QAU?$pair@HH@0@@Z	; std::get<1,int,int>
PUBLIC	??$get@$00HH@std@@YAAAHAAU?$pair@HH@0@@Z	; std::get<1,int,int>
PUBLIC	??$endl@DU?$char_traits@D@std@@@std@@YAAAV?$basic_ostream@DU?$char_traits@D@std@@@0@AAV10@@Z ; std::endl<char,std::char_traits<char> >
PUBLIC	?allocate@?$allocator@U_Container_proxy@std@@@std@@QAEPAU_Container_proxy@2@I@Z ; std::allocator<std::_Container_proxy>::allocate
PUBLIC	??$?0H@?$allocator@U_Container_proxy@std@@@std@@QAE@ABV?$allocator@H@1@@Z ; std::allocator<std::_Container_proxy>::allocator<std::_Container_proxy><int>
PUBLIC	??$exchange@PAU_Container_proxy@std@@$$T@std@@YAPAU_Container_proxy@0@AAPAU10@$$QA$$T@Z ; std::exchange<std::_Container_proxy *,std::nullptr_t>
PUBLIC	??$_Delete_plain_internal@V?$allocator@U_Container_proxy@std@@@std@@@std@@YAXAAV?$allocator@U_Container_proxy@std@@@0@QAU_Container_proxy@0@@Z ; std::_Delete_plain_internal<std::allocator<std::_Container_proxy> >
PUBLIC	??$?0ABV?$allocator@H@std@@$$V@?$_Compressed_pair@V?$allocator@H@std@@V?$_Vector_val@U?$_Simple_types@H@std@@@2@$00@std@@QAE@U_One_then_variadic_args_t@1@ABV?$allocator@H@1@@Z ; std::_Compressed_pair<std::allocator<int>,std::_Vector_val<std::_Simple_types<int> >,1>::_Compressed_pair<std::allocator<int>,std::_Vector_val<std::_Simple_types<int> >,1><std::allocator<int> const &>
PUBLIC	??0?$_Container_proxy_ptr12@V?$allocator@U_Container_proxy@std@@@std@@@std@@QAE@AAV?$allocator@U_Container_proxy@std@@@1@AAU_Container_base12@1@@Z ; std::_Container_proxy_ptr12<std::allocator<std::_Container_proxy> >::_Container_proxy_ptr12<std::allocator<std::_Container_proxy> >
PUBLIC	??1?$_Container_proxy_ptr12@V?$allocator@U_Container_proxy@std@@@std@@@std@@QAE@XZ ; std::_Container_proxy_ptr12<std::allocator<std::_Container_proxy> >::~_Container_proxy_ptr12<std::allocator<std::_Container_proxy> >
PUBLIC	??$_Range_construct_or_tidy@PBH@?$vector@HV?$allocator@H@std@@@std@@AAEXPBH0Uforward_iterator_tag@1@@Z ; std::vector<int,std::allocator<int> >::_Range_construct_or_tidy<int const *>
PUBLIC	??0_Sentry_base@?$basic_ostream@DU?$char_traits@D@std@@@std@@QAE@AAV12@@Z ; std::basic_ostream<char,std::char_traits<char> >::_Sentry_base::_Sentry_base
PUBLIC	??1_Sentry_base@?$basic_ostream@DU?$char_traits@D@std@@@std@@QAE@XZ ; std::basic_ostream<char,std::char_traits<char> >::_Sentry_base::~_Sentry_base
PUBLIC	??0sentry@?$basic_ostream@DU?$char_traits@D@std@@@std@@QAE@AAV12@@Z ; std::basic_ostream<char,std::char_traits<char> >::sentry::sentry
PUBLIC	??1sentry@?$basic_ostream@DU?$char_traits@D@std@@@std@@QAE@XZ ; std::basic_ostream<char,std::char_traits<char> >::sentry::~sentry
PUBLIC	??Bsentry@?$basic_ostream@DU?$char_traits@D@std@@@std@@QBE_NXZ ; std::basic_ostream<char,std::char_traits<char> >::sentry::operator bool
PUBLIC	??$_Unfancy@U_Container_proxy@std@@@std@@YAPAU_Container_proxy@0@PAU10@@Z ; std::_Unfancy<std::_Container_proxy>
PUBLIC	??$_Allocate@$07U_Default_allocate_traits@std@@$0A@@std@@YAPAXI@Z ; std::_Allocate<8,std::_Default_allocate_traits,0>
PUBLIC	??$_Deallocate@$07$0A@@std@@YAXPAXI@Z		; std::_Deallocate<8,0>
PUBLIC	??$_Get_size_of_n@$07@std@@YAII@Z		; std::_Get_size_of_n<8>
PUBLIC	??$_Destroy_range@V?$allocator@H@std@@@std@@YAXPAHQAHAAV?$allocator@H@0@@Z ; std::_Destroy_range<std::allocator<int> >
PUBLIC	??$addressof@U_Container_proxy@std@@@std@@YAPAU_Container_proxy@0@AAU10@@Z ; std::addressof<std::_Container_proxy>
PUBLIC	??$forward@PAU_Container_base12@std@@@std@@YA$$QAPAU_Container_base12@0@AAPAU10@@Z ; std::forward<std::_Container_base12 *>
PUBLIC	??$forward@AAN@std@@YAAANAAN@Z			; std::forward<double &>
PUBLIC	??$forward@U?$pair@NN@std@@@std@@YA$$QAU?$pair@NN@0@AAU10@@Z ; std::forward<std::pair<double,double> >
PUBLIC	??$_Assign@U?$pair@NN@std@@@?$_Optional_construct_base@U?$pair@NN@std@@@std@@QAEX$$QAU?$pair@NN@1@@Z ; std::_Optional_construct_base<std::pair<double,double> >::_Assign<std::pair<double,double> >
PUBLIC	??$forward@U?$pair@HH@std@@@std@@YA$$QAU?$pair@HH@0@AAU10@@Z ; std::forward<std::pair<int,int> >
PUBLIC	??$_Assign@U?$pair@HH@std@@@?$_Optional_construct_base@U?$pair@HH@std@@@std@@QAEX$$QAU?$pair@HH@1@@Z ; std::_Optional_construct_base<std::pair<int,int> >::_Assign<std::pair<int,int> >
PUBLIC	??$forward@$$QAN@std@@YA$$QANAAN@Z		; std::forward<double &&>
PUBLIC	??$forward@$$QAH@std@@YA$$QAHAAH@Z		; std::forward<int &&>
PUBLIC	??$_Deallocate_plain@V?$allocator@U_Container_proxy@std@@@std@@@std@@YAXAAV?$allocator@U_Container_proxy@std@@@0@QAU_Container_proxy@0@@Z ; std::_Deallocate_plain<std::allocator<std::_Container_proxy> >
PUBLIC	??$forward@ABV?$allocator@H@std@@@std@@YAABV?$allocator@H@0@ABV10@@Z ; std::forward<std::allocator<int> const &>
PUBLIC	??$distance@PBH@std@@YAHPBH0@Z			; std::distance<int const *>
PUBLIC	??1?$_Tidy_guard@V?$vector@HV?$allocator@H@std@@@std@@@std@@QAE@XZ ; std::_Tidy_guard<std::vector<int,std::allocator<int> > >::~_Tidy_guard<std::vector<int,std::allocator<int> > >
PUBLIC	??$_Ucopy@PBH@?$vector@HV?$allocator@H@std@@@std@@AAEPAHPBH0PAH@Z ; std::vector<int,std::allocator<int> >::_Ucopy<int const *>
PUBLIC	??$_Allocate_manually_vector_aligned@U_Default_allocate_traits@std@@@std@@YAPAXI@Z ; std::_Allocate_manually_vector_aligned<std::_Default_allocate_traits>
PUBLIC	??$_Get_size_of_n@$03@std@@YAII@Z		; std::_Get_size_of_n<4>
PUBLIC	??$_Pair_get@AANU?$pair@NN@std@@@std@@YAAANAAU?$pair@NN@0@U?$integral_constant@I$00@0@@Z ; std::_Pair_get<double &,std::pair<double,double> >
PUBLIC	??$_Pair_get@AANU?$pair@NN@std@@@std@@YAAANAAU?$pair@NN@0@U?$integral_constant@I$0A@@0@@Z ; std::_Pair_get<double &,std::pair<double,double> >
PUBLIC	??$_Pair_get@AAHU?$pair@HH@std@@@std@@YAAAHAAU?$pair@HH@0@U?$integral_constant@I$00@0@@Z ; std::_Pair_get<int &,std::pair<int,int> >
PUBLIC	??$_Pair_get@AAHU?$pair@HH@std@@@std@@YAAAHAAU?$pair@HH@0@U?$integral_constant@I$0A@@0@@Z ; std::_Pair_get<int &,std::pair<int,int> >
PUBLIC	??$_Construct@U?$pair@NN@std@@@?$_Optional_construct_base@U?$pair@NN@std@@@std@@QAEAAU?$pair@NN@1@$$QAU21@@Z ; std::_Optional_construct_base<std::pair<double,double> >::_Construct<std::pair<double,double> >
PUBLIC	??$_Construct@U?$pair@HH@std@@@?$_Optional_construct_base@U?$pair@HH@std@@@std@@QAEAAU?$pair@HH@1@$$QAU21@@Z ; std::_Optional_construct_base<std::pair<int,int> >::_Construct<std::pair<int,int> >
PUBLIC	?deallocate@?$_Default_allocator_traits@V?$allocator@U_Container_proxy@std@@@std@@@std@@SAXAAV?$allocator@U_Container_proxy@std@@@2@QAU_Container_proxy@2@I@Z ; std::_Default_allocator_traits<std::allocator<std::_Container_proxy> >::deallocate
PUBLIC	??$_Uninitialized_copy@PBHV?$allocator@H@std@@@std@@YAPAHQBH0PAHAAV?$allocator@H@0@@Z ; std::_Uninitialized_copy<int const *,std::allocator<int> >
PUBLIC	??$forward@N@std@@YA$$QANAAN@Z			; std::forward<double>
PUBLIC	??$forward@H@std@@YA$$QAHAAH@Z			; std::forward<int>
PUBLIC	??$_Construct_in_place@U?$pair@NN@std@@U12@@std@@YAXAAU?$pair@NN@0@$$QAU10@@Z ; std::_Construct_in_place<std::pair<double,double>,std::pair<double,double> >
PUBLIC	??$_Construct_in_place@U?$pair@HH@std@@U12@@std@@YAXAAU?$pair@HH@0@$$QAU10@@Z ; std::_Construct_in_place<std::pair<int,int>,std::pair<int,int> >
PUBLIC	??$_Get_unwrapped@$$CBH@std@@YAPBHQBH@Z		; std::_Get_unwrapped<int const >
PUBLIC	??$_Unfancy@H@std@@YAPAHPAH@Z			; std::_Unfancy<int>
PUBLIC	??$_Copy_memmove@PBHPAH@std@@YAPAHPBH0PAH@Z	; std::_Copy_memmove<int const *,int *>
PUBLIC	??$addressof@U?$pair@NN@std@@@std@@YAPAU?$pair@NN@0@AAU10@@Z ; std::addressof<std::pair<double,double> >
PUBLIC	??$addressof@U?$pair@HH@std@@@std@@YAPAU?$pair@HH@0@AAU10@@Z ; std::addressof<std::pair<int,int> >
PUBLIC	__JustMyCode_Default
PUBLIC	??_7exception@std@@6B@				; std::exception::`vftable'
PUBLIC	??_C@_0BC@EOODALEL@Unknown?5exception@		; `string'
PUBLIC	??_7bad_alloc@std@@6B@				; std::bad_alloc::`vftable'
PUBLIC	??_7bad_array_new_length@std@@6B@		; std::bad_array_new_length::`vftable'
PUBLIC	??_C@_0BF@KINCDENJ@bad?5array?5new?5length@	; `string'
PUBLIC	__TI3?AVbad_array_new_length@std@@
PUBLIC	__CTA3?AVbad_array_new_length@std@@
PUBLIC	??_R0?AVbad_array_new_length@std@@@8		; std::bad_array_new_length `RTTI Type Descriptor'
PUBLIC	__CT??_R0?AVbad_array_new_length@std@@@8??0bad_array_new_length@std@@QAE@ABV01@@Z12
PUBLIC	??_R0?AVbad_alloc@std@@@8			; std::bad_alloc `RTTI Type Descriptor'
PUBLIC	__CT??_R0?AVbad_alloc@std@@@8??0bad_alloc@std@@QAE@ABV01@@Z12
PUBLIC	??_R0?AVexception@std@@@8			; std::exception `RTTI Type Descriptor'
PUBLIC	__CT??_R0?AVexception@std@@@8??0exception@std@@QAE@ABV01@@Z12
PUBLIC	?__LINE__Var@?0??_Adjust_manually_vector_aligned@std@@YAXAAPAXAAI@Z@4JA ; `std::_Adjust_manually_vector_aligned'::`1'::__LINE__Var
PUBLIC	??_C@_0BB@FCMFBGOM@invalid?5argument@		; `string'
PUBLIC	??_C@_02DKCKIIND@?$CFs@				; `string'
PUBLIC	??_C@_0GI@FJIKDGOA@C?3?2Program?5Files?5?$CIx86?$CJ?2Microsof@ ; `string'
PUBLIC	??_C@_1NA@CDBIFGMM@?$AAC?$AA?3?$AA?2?$AAP?$AAr?$AAo?$AAg?$AAr?$AAa?$AAm?$AA?5?$AAF?$AAi?$AAl?$AAe@ ; `string'
PUBLIC	??_C@_1EK@NIFDJFDG@?$AAs?$AAt?$AAd?$AA?3?$AA?3?$AA_?$AAA?$AAd?$AAj?$AAu?$AAs?$AAt?$AA_?$AAm?$AAa@ ; `string'
PUBLIC	??_C@_1CG@JNLFBNGN@?$AA?$CC?$AAi?$AAn?$AAv?$AAa?$AAl?$AAi?$AAd?$AA?5?$AAa?$AAr?$AAg?$AAu?$AAm?$AAe@ ; `string'
PUBLIC	??_7bad_optional_access@std@@6B@		; std::bad_optional_access::`vftable'
PUBLIC	??_C@_0BE@LMOOKEAD@Bad?5optional?5access@	; `string'
PUBLIC	__TI2?AVbad_optional_access@std@@
PUBLIC	__CTA2?AVbad_optional_access@std@@
PUBLIC	??_R0?AVbad_optional_access@std@@@8		; std::bad_optional_access `RTTI Type Descriptor'
PUBLIC	__CT??_R0?AVbad_optional_access@std@@@8??0bad_optional_access@std@@QAE@ABV01@@Z12
PUBLIC	__TI1?AVexception@std@@
PUBLIC	__CTA1?AVexception@std@@
PUBLIC	??_C@_0BF@GJAJHPMJ@no?5contents?5in?5array@	; `string'
PUBLIC	??_C@_0BG@GBJODOCB@no?5contents?5in?5vector@	; `string'
PUBLIC	??_C@_0CG@PJKAEDDD@?6?5?5Demonstrating?5Function?5Overl@ ; `string'
PUBLIC	??_C@_0CI@EDPLBKEE@?6?5?$DN?$DN?$DN?$DN?$DN?$DN?$DN?$DN?$DN?$DN?$DN?$DN?$DN?$DN?$DN?$DN?$DN?$DN?$DN?$DN?$DN?$DN?$DN?$DN?$DN?$DN?$DN?$DN?$DN@ ; `string'
PUBLIC	??_C@_09PJIBMAOO@?0?5last?5?$DN?5@		; `string'
PUBLIC	??_C@_0M@KEBHBLHF@?6?5?5first?5?$DN?5@		; `string'
PUBLIC	??_C@_03BMMPKCMF@?6?5?5@			; `string'
PUBLIC	??_C@_0BG@ILJLLCHH@?6?5?5array?5query?5failed@	; `string'
PUBLIC	??_C@_0BH@IDHHFMPP@?6?5?5vector?5query?5failed@	; `string'
PUBLIC	??_C@_02PHMGELLB@?6?6@				; `string'
PUBLIC	??_C@_0BO@PFKOHNJC@vector?5subscript?5out?5of?5range@ ; `string'
PUBLIC	??_C@_0GH@OOPCKGB@C?3?2Program?5Files?5?$CIx86?$CJ?2Microsof@ ; `string'
PUBLIC	??_C@_1MO@NOOOHLI@?$AAC?$AA?3?$AA?2?$AAP?$AAr?$AAo?$AAg?$AAr?$AAa?$AAm?$AA?5?$AAF?$AAi?$AAl?$AAe@ ; `string'
PUBLIC	??_C@_1HC@HBCEAHKD@?$AAs?$AAt?$AAd?$AA?3?$AA?3?$AAv?$AAe?$AAc?$AAt?$AAo?$AAr?$AA?$DM?$AAi?$AAn?$AAt@ ; `string'
PUBLIC	??_C@_1EA@LEKOKFNB@?$AA?$CC?$AAv?$AAe?$AAc?$AAt?$AAo?$AAr?$AA?5?$AAs?$AAu?$AAb?$AAs?$AAc?$AAr?$AAi@ ; `string'
PUBLIC	??_C@_0BD@OLBABOEK@vector?$DMT?$DO?5too?5long@	; `string'
PUBLIC	??_C@_1EO@GFNCMDLA@?$AAs?$AAt?$AAd?$AA?3?$AA?3?$AA_?$AAA?$AAl?$AAl?$AAo?$AAc?$AAa?$AAt?$AAe?$AA_@ ; `string'
PUBLIC	??_R4exception@std@@6B@				; std::exception::`RTTI Complete Object Locator'
PUBLIC	??_R3exception@std@@8				; std::exception::`RTTI Class Hierarchy Descriptor'
PUBLIC	??_R2exception@std@@8				; std::exception::`RTTI Base Class Array'
PUBLIC	??_R1A@?0A@EA@exception@std@@8			; std::exception::`RTTI Base Class Descriptor at (0,-1,0,64)'
PUBLIC	??_R4bad_alloc@std@@6B@				; std::bad_alloc::`RTTI Complete Object Locator'
PUBLIC	??_R3bad_alloc@std@@8				; std::bad_alloc::`RTTI Class Hierarchy Descriptor'
PUBLIC	??_R2bad_alloc@std@@8				; std::bad_alloc::`RTTI Base Class Array'
PUBLIC	??_R1A@?0A@EA@bad_alloc@std@@8			; std::bad_alloc::`RTTI Base Class Descriptor at (0,-1,0,64)'
PUBLIC	??_R4bad_array_new_length@std@@6B@		; std::bad_array_new_length::`RTTI Complete Object Locator'
PUBLIC	??_R3bad_array_new_length@std@@8		; std::bad_array_new_length::`RTTI Class Hierarchy Descriptor'
PUBLIC	??_R2bad_array_new_length@std@@8		; std::bad_array_new_length::`RTTI Base Class Array'
PUBLIC	??_R1A@?0A@EA@bad_array_new_length@std@@8	; std::bad_array_new_length::`RTTI Base Class Descriptor at (0,-1,0,64)'
PUBLIC	??_R4bad_optional_access@std@@6B@		; std::bad_optional_access::`RTTI Complete Object Locator'
PUBLIC	??_R3bad_optional_access@std@@8			; std::bad_optional_access::`RTTI Class Hierarchy Descriptor'
PUBLIC	??_R2bad_optional_access@std@@8			; std::bad_optional_access::`RTTI Base Class Array'
PUBLIC	??_R1A@?0A@EA@bad_optional_access@std@@8	; std::bad_optional_access::`RTTI Base Class Descriptor at (0,-1,0,64)'
PUBLIC	__real@3ff8000000000000
PUBLIC	__real@4008000000000000
PUBLIC	__real@bfe0000000000000
EXTRN	??2@YAPAXI@Z:PROC				; operator new
EXTRN	??3@YAXPAXI@Z:PROC				; operator delete
EXTRN	__imp___invalid_parameter:PROC
EXTRN	__imp___CrtDbgReport:PROC
EXTRN	__imp_??0_Lockit@std@@QAE@H@Z:PROC
EXTRN	__imp_??1_Lockit@std@@QAE@XZ:PROC
EXTRN	?uncaught_exception@std@@YA_NXZ:PROC		; std::uncaught_exception
EXTRN	___std_exception_copy:PROC
EXTRN	___std_exception_destroy:PROC
EXTRN	??_Eexception@std@@UAEPAXI@Z:PROC		; std::exception::`vector deleting destructor'
EXTRN	??_Ebad_alloc@std@@UAEPAXI@Z:PROC		; std::bad_alloc::`vector deleting destructor'
EXTRN	??_Ebad_array_new_length@std@@UAEPAXI@Z:PROC	; std::bad_array_new_length::`vector deleting destructor'
EXTRN	_memmove:PROC
EXTRN	?_Xlength_error@std@@YAXPBD@Z:PROC		; std::_Xlength_error
EXTRN	??_Ebad_optional_access@std@@UAEPAXI@Z:PROC	; std::bad_optional_access::`vector deleting destructor'
EXTRN	__imp_?good@ios_base@std@@QBE_NXZ:PROC
EXTRN	__imp_?flags@ios_base@std@@QBEHXZ:PROC
EXTRN	__imp_?width@ios_base@std@@QBE_JXZ:PROC
EXTRN	__imp_?width@ios_base@std@@QAE_J_J@Z:PROC
EXTRN	__imp_?sputc@?$basic_streambuf@DU?$char_traits@D@std@@@std@@QAEHD@Z:PROC
EXTRN	__imp_?sputn@?$basic_streambuf@DU?$char_traits@D@std@@@std@@QAE_JPBD_J@Z:PROC
EXTRN	__imp_?setstate@?$basic_ios@DU?$char_traits@D@std@@@std@@QAEXH_N@Z:PROC
EXTRN	__imp_?tie@?$basic_ios@DU?$char_traits@D@std@@@std@@QBEPAV?$basic_ostream@DU?$char_traits@D@std@@@2@XZ:PROC
EXTRN	__imp_?rdbuf@?$basic_ios@DU?$char_traits@D@std@@@std@@QBEPAV?$basic_streambuf@DU?$char_traits@D@std@@@2@XZ:PROC
EXTRN	__imp_?fill@?$basic_ios@DU?$char_traits@D@std@@@std@@QBEDXZ:PROC
EXTRN	__imp_?widen@?$basic_ios@DU?$char_traits@D@std@@@std@@QBEDD@Z:PROC
EXTRN	__imp_?_Osfx@?$basic_ostream@DU?$char_traits@D@std@@@std@@QAEXXZ:PROC
EXTRN	__imp_??6?$basic_ostream@DU?$char_traits@D@std@@@std@@QAEAAV01@P6AAAV01@AAV01@@Z@Z:PROC
EXTRN	__imp_??6?$basic_ostream@DU?$char_traits@D@std@@@std@@QAEAAV01@H@Z:PROC
EXTRN	__imp_??6?$basic_ostream@DU?$char_traits@D@std@@@std@@QAEAAV01@N@Z:PROC
EXTRN	__imp_?put@?$basic_ostream@DU?$char_traits@D@std@@@std@@QAEAAV12@D@Z:PROC
EXTRN	__imp_?flush@?$basic_ostream@DU?$char_traits@D@std@@@std@@QAEAAV12@XZ:PROC
EXTRN	@_RTC_CheckStackVars@8:PROC
EXTRN	@__CheckForDebuggerJustMyCode@4:PROC
EXTRN	@__security_check_cookie@4:PROC
EXTRN	__CxxThrowException@8:PROC
EXTRN	__RTC_CheckEsp:PROC
EXTRN	__RTC_InitBase:PROC
EXTRN	__RTC_Shutdown:PROC
EXTRN	___CxxFrameHandler3:PROC
EXTRN	_memset:PROC
EXTRN	??_7type_info@@6B@:QWORD			; type_info::`vftable'
EXTRN	__imp_?cout@std@@3V?$basic_ostream@DU?$char_traits@D@std@@@1@A:BYTE
EXTRN	___security_cookie:DWORD
EXTRN	__fltused:DWORD
;	COMDAT __real@bfe0000000000000
CONST	SEGMENT
__real@bfe0000000000000 DQ 0bfe0000000000000r	; -0.5
CONST	ENDS
;	COMDAT __real@4008000000000000
CONST	SEGMENT
__real@4008000000000000 DQ 04008000000000000r	; 3
CONST	ENDS
;	COMDAT __real@3ff8000000000000
CONST	SEGMENT
__real@3ff8000000000000 DQ 03ff8000000000000r	; 1.5
CONST	ENDS
;	COMDAT rtc$TMZ
rtc$TMZ	SEGMENT
__RTC_Shutdown.rtc$TMZ DD FLAT:__RTC_Shutdown
rtc$TMZ	ENDS
;	COMDAT rtc$IMZ
rtc$IMZ	SEGMENT
__RTC_InitBase.rtc$IMZ DD FLAT:__RTC_InitBase
rtc$IMZ	ENDS
;	COMDAT ??_R1A@?0A@EA@bad_optional_access@std@@8
rdata$r	SEGMENT
??_R1A@?0A@EA@bad_optional_access@std@@8 DD FLAT:??_R0?AVbad_optional_access@std@@@8 ; std::bad_optional_access::`RTTI Base Class Descriptor at (0,-1,0,64)'
	DD	01H
	DD	00H
	DD	0ffffffffH
	DD	00H
	DD	040H
	DD	FLAT:??_R3bad_optional_access@std@@8
rdata$r	ENDS
;	COMDAT ??_R2bad_optional_access@std@@8
rdata$r	SEGMENT
??_R2bad_optional_access@std@@8 DD FLAT:??_R1A@?0A@EA@bad_optional_access@std@@8 ; std::bad_optional_access::`RTTI Base Class Array'
	DD	FLAT:??_R1A@?0A@EA@exception@std@@8
rdata$r	ENDS
;	COMDAT ??_R3bad_optional_access@std@@8
rdata$r	SEGMENT
??_R3bad_optional_access@std@@8 DD 00H			; std::bad_optional_access::`RTTI Class Hierarchy Descriptor'
	DD	00H
	DD	02H
	DD	FLAT:??_R2bad_optional_access@std@@8
rdata$r	ENDS
;	COMDAT ??_R4bad_optional_access@std@@6B@
rdata$r	SEGMENT
??_R4bad_optional_access@std@@6B@ DD 00H		; std::bad_optional_access::`RTTI Complete Object Locator'
	DD	00H
	DD	00H
	DD	FLAT:??_R0?AVbad_optional_access@std@@@8
	DD	FLAT:??_R3bad_optional_access@std@@8
rdata$r	ENDS
;	COMDAT ??_R1A@?0A@EA@bad_array_new_length@std@@8
rdata$r	SEGMENT
??_R1A@?0A@EA@bad_array_new_length@std@@8 DD FLAT:??_R0?AVbad_array_new_length@std@@@8 ; std::bad_array_new_length::`RTTI Base Class Descriptor at (0,-1,0,64)'
	DD	02H
	DD	00H
	DD	0ffffffffH
	DD	00H
	DD	040H
	DD	FLAT:??_R3bad_array_new_length@std@@8
rdata$r	ENDS
;	COMDAT ??_R2bad_array_new_length@std@@8
rdata$r	SEGMENT
??_R2bad_array_new_length@std@@8 DD FLAT:??_R1A@?0A@EA@bad_array_new_length@std@@8 ; std::bad_array_new_length::`RTTI Base Class Array'
	DD	FLAT:??_R1A@?0A@EA@bad_alloc@std@@8
	DD	FLAT:??_R1A@?0A@EA@exception@std@@8
rdata$r	ENDS
;	COMDAT ??_R3bad_array_new_length@std@@8
rdata$r	SEGMENT
??_R3bad_array_new_length@std@@8 DD 00H			; std::bad_array_new_length::`RTTI Class Hierarchy Descriptor'
	DD	00H
	DD	03H
	DD	FLAT:??_R2bad_array_new_length@std@@8
rdata$r	ENDS
;	COMDAT ??_R4bad_array_new_length@std@@6B@
rdata$r	SEGMENT
??_R4bad_array_new_length@std@@6B@ DD 00H		; std::bad_array_new_length::`RTTI Complete Object Locator'
	DD	00H
	DD	00H
	DD	FLAT:??_R0?AVbad_array_new_length@std@@@8
	DD	FLAT:??_R3bad_array_new_length@std@@8
rdata$r	ENDS
;	COMDAT ??_R1A@?0A@EA@bad_alloc@std@@8
rdata$r	SEGMENT
??_R1A@?0A@EA@bad_alloc@std@@8 DD FLAT:??_R0?AVbad_alloc@std@@@8 ; std::bad_alloc::`RTTI Base Class Descriptor at (0,-1,0,64)'
	DD	01H
	DD	00H
	DD	0ffffffffH
	DD	00H
	DD	040H
	DD	FLAT:??_R3bad_alloc@std@@8
rdata$r	ENDS
;	COMDAT ??_R2bad_alloc@std@@8
rdata$r	SEGMENT
??_R2bad_alloc@std@@8 DD FLAT:??_R1A@?0A@EA@bad_alloc@std@@8 ; std::bad_alloc::`RTTI Base Class Array'
	DD	FLAT:??_R1A@?0A@EA@exception@std@@8
rdata$r	ENDS
;	COMDAT ??_R3bad_alloc@std@@8
rdata$r	SEGMENT
??_R3bad_alloc@std@@8 DD 00H				; std::bad_alloc::`RTTI Class Hierarchy Descriptor'
	DD	00H
	DD	02H
	DD	FLAT:??_R2bad_alloc@std@@8
rdata$r	ENDS
;	COMDAT ??_R4bad_alloc@std@@6B@
rdata$r	SEGMENT
??_R4bad_alloc@std@@6B@ DD 00H				; std::bad_alloc::`RTTI Complete Object Locator'
	DD	00H
	DD	00H
	DD	FLAT:??_R0?AVbad_alloc@std@@@8
	DD	FLAT:??_R3bad_alloc@std@@8
rdata$r	ENDS
;	COMDAT ??_R1A@?0A@EA@exception@std@@8
rdata$r	SEGMENT
??_R1A@?0A@EA@exception@std@@8 DD FLAT:??_R0?AVexception@std@@@8 ; std::exception::`RTTI Base Class Descriptor at (0,-1,0,64)'
	DD	00H
	DD	00H
	DD	0ffffffffH
	DD	00H
	DD	040H
	DD	FLAT:??_R3exception@std@@8
rdata$r	ENDS
;	COMDAT ??_R2exception@std@@8
rdata$r	SEGMENT
??_R2exception@std@@8 DD FLAT:??_R1A@?0A@EA@exception@std@@8 ; std::exception::`RTTI Base Class Array'
rdata$r	ENDS
;	COMDAT ??_R3exception@std@@8
rdata$r	SEGMENT
??_R3exception@std@@8 DD 00H				; std::exception::`RTTI Class Hierarchy Descriptor'
	DD	00H
	DD	01H
	DD	FLAT:??_R2exception@std@@8
rdata$r	ENDS
;	COMDAT ??_R4exception@std@@6B@
rdata$r	SEGMENT
??_R4exception@std@@6B@ DD 00H				; std::exception::`RTTI Complete Object Locator'
	DD	00H
	DD	00H
	DD	FLAT:??_R0?AVexception@std@@@8
	DD	FLAT:??_R3exception@std@@8
rdata$r	ENDS
;	COMDAT ??_C@_1EO@GFNCMDLA@?$AAs?$AAt?$AAd?$AA?3?$AA?3?$AA_?$AAA?$AAl?$AAl?$AAo?$AAc?$AAa?$AAt?$AAe?$AA_@
CONST	SEGMENT
??_C@_1EO@GFNCMDLA@?$AAs?$AAt?$AAd?$AA?3?$AA?3?$AA_?$AAA?$AAl?$AAl?$AAo?$AAc?$AAa?$AAt?$AAe?$AA_@ DB 's'
	DB	00H, 't', 00H, 'd', 00H, ':', 00H, ':', 00H, '_', 00H, 'A', 00H
	DB	'l', 00H, 'l', 00H, 'o', 00H, 'c', 00H, 'a', 00H, 't', 00H, 'e'
	DB	00H, '_', 00H, 'm', 00H, 'a', 00H, 'n', 00H, 'u', 00H, 'a', 00H
	DB	'l', 00H, 'l', 00H, 'y', 00H, '_', 00H, 'v', 00H, 'e', 00H, 'c'
	DB	00H, 't', 00H, 'o', 00H, 'r', 00H, '_', 00H, 'a', 00H, 'l', 00H
	DB	'i', 00H, 'g', 00H, 'n', 00H, 'e', 00H, 'd', 00H, 00H, 00H ; `string'
CONST	ENDS
;	COMDAT ??_C@_0BD@OLBABOEK@vector?$DMT?$DO?5too?5long@
CONST	SEGMENT
??_C@_0BD@OLBABOEK@vector?$DMT?$DO?5too?5long@ DB 'vector<T> too long', 00H ; `string'
CONST	ENDS
;	COMDAT ??_C@_1EA@LEKOKFNB@?$AA?$CC?$AAv?$AAe?$AAc?$AAt?$AAo?$AAr?$AA?5?$AAs?$AAu?$AAb?$AAs?$AAc?$AAr?$AAi@
CONST	SEGMENT
??_C@_1EA@LEKOKFNB@?$AA?$CC?$AAv?$AAe?$AAc?$AAt?$AAo?$AAr?$AA?5?$AAs?$AAu?$AAb?$AAs?$AAc?$AAr?$AAi@ DB '"'
	DB	00H, 'v', 00H, 'e', 00H, 'c', 00H, 't', 00H, 'o', 00H, 'r', 00H
	DB	' ', 00H, 's', 00H, 'u', 00H, 'b', 00H, 's', 00H, 'c', 00H, 'r'
	DB	00H, 'i', 00H, 'p', 00H, 't', 00H, ' ', 00H, 'o', 00H, 'u', 00H
	DB	't', 00H, ' ', 00H, 'o', 00H, 'f', 00H, ' ', 00H, 'r', 00H, 'a'
	DB	00H, 'n', 00H, 'g', 00H, 'e', 00H, '"', 00H, 00H, 00H ; `string'
CONST	ENDS
;	COMDAT ??_C@_1HC@HBCEAHKD@?$AAs?$AAt?$AAd?$AA?3?$AA?3?$AAv?$AAe?$AAc?$AAt?$AAo?$AAr?$AA?$DM?$AAi?$AAn?$AAt@
CONST	SEGMENT
??_C@_1HC@HBCEAHKD@?$AAs?$AAt?$AAd?$AA?3?$AA?3?$AAv?$AAe?$AAc?$AAt?$AAo?$AAr?$AA?$DM?$AAi?$AAn?$AAt@ DB 's'
	DB	00H, 't', 00H, 'd', 00H, ':', 00H, ':', 00H, 'v', 00H, 'e', 00H
	DB	'c', 00H, 't', 00H, 'o', 00H, 'r', 00H, '<', 00H, 'i', 00H, 'n'
	DB	00H, 't', 00H, ',', 00H, 'c', 00H, 'l', 00H, 'a', 00H, 's', 00H
	DB	's', 00H, ' ', 00H, 's', 00H, 't', 00H, 'd', 00H, ':', 00H, ':'
	DB	00H, 'a', 00H, 'l', 00H, 'l', 00H, 'o', 00H, 'c', 00H, 'a', 00H
	DB	't', 00H, 'o', 00H, 'r', 00H, '<', 00H, 'i', 00H, 'n', 00H, 't'
	DB	00H, '>', 00H, ' ', 00H, '>', 00H, ':', 00H, ':', 00H, 'o', 00H
	DB	'p', 00H, 'e', 00H, 'r', 00H, 'a', 00H, 't', 00H, 'o', 00H, 'r'
	DB	00H, ' ', 00H, '[', 00H, ']', 00H, 00H, 00H	; `string'
CONST	ENDS
;	COMDAT ??_C@_1MO@NOOOHLI@?$AAC?$AA?3?$AA?2?$AAP?$AAr?$AAo?$AAg?$AAr?$AAa?$AAm?$AA?5?$AAF?$AAi?$AAl?$AAe@
CONST	SEGMENT
??_C@_1MO@NOOOHLI@?$AAC?$AA?3?$AA?2?$AAP?$AAr?$AAo?$AAg?$AAr?$AAa?$AAm?$AA?5?$AAF?$AAi?$AAl?$AAe@ DB 'C'
	DB	00H, ':', 00H, '\', 00H, 'P', 00H, 'r', 00H, 'o', 00H, 'g', 00H
	DB	'r', 00H, 'a', 00H, 'm', 00H, ' ', 00H, 'F', 00H, 'i', 00H, 'l'
	DB	00H, 'e', 00H, 's', 00H, ' ', 00H, '(', 00H, 'x', 00H, '8', 00H
	DB	'6', 00H, ')', 00H, '\', 00H, 'M', 00H, 'i', 00H, 'c', 00H, 'r'
	DB	00H, 'o', 00H, 's', 00H, 'o', 00H, 'f', 00H, 't', 00H, ' ', 00H
	DB	'V', 00H, 'i', 00H, 's', 00H, 'u', 00H, 'a', 00H, 'l', 00H, ' '
	DB	00H, 'S', 00H, 't', 00H, 'u', 00H, 'd', 00H, 'i', 00H, 'o', 00H
	DB	'\', 00H, '2', 00H, '0', 00H, '1', 00H, '9', 00H, '\', 00H, 'C'
	DB	00H, 'o', 00H, 'm', 00H, 'm', 00H, 'u', 00H, 'n', 00H, 'i', 00H
	DB	't', 00H, 'y', 00H, '\', 00H, 'V', 00H, 'C', 00H, '\', 00H, 'T'
	DB	00H, 'o', 00H, 'o', 00H, 'l', 00H, 's', 00H, '\', 00H, 'M', 00H
	DB	'S', 00H, 'V', 00H, 'C', 00H, '\', 00H, '1', 00H, '4', 00H, '.'
	DB	00H, '2', 00H, '3', 00H, '.', 00H, '2', 00H, '8', 00H, '1', 00H
	DB	'0', 00H, '5', 00H, '\', 00H, 'i', 00H, 'n', 00H, 'c', 00H, 'l'
	DB	00H, 'u', 00H, 'd', 00H, 'e', 00H, '\', 00H, 'v', 00H, 'e', 00H
	DB	'c', 00H, 't', 00H, 'o', 00H, 'r', 00H, 00H, 00H ; `string'
CONST	ENDS
;	COMDAT ??_C@_0GH@OOPCKGB@C?3?2Program?5Files?5?$CIx86?$CJ?2Microsof@
CONST	SEGMENT
??_C@_0GH@OOPCKGB@C?3?2Program?5Files?5?$CIx86?$CJ?2Microsof@ DB 'C:\Prog'
	DB	'ram Files (x86)\Microsoft Visual Studio\2019\Community\VC\Too'
	DB	'ls\MSVC\14.23.28105\include\vector', 00H	; `string'
CONST	ENDS
;	COMDAT ??_C@_0BO@PFKOHNJC@vector?5subscript?5out?5of?5range@
CONST	SEGMENT
??_C@_0BO@PFKOHNJC@vector?5subscript?5out?5of?5range@ DB 'vector subscrip'
	DB	't out of range', 00H			; `string'
CONST	ENDS
;	COMDAT ??_C@_02PHMGELLB@?6?6@
CONST	SEGMENT
??_C@_02PHMGELLB@?6?6@ DB 0aH, 0aH, 00H			; `string'
CONST	ENDS
;	COMDAT ??_C@_0BH@IDHHFMPP@?6?5?5vector?5query?5failed@
CONST	SEGMENT
??_C@_0BH@IDHHFMPP@?6?5?5vector?5query?5failed@ DB 0aH, '  vector query f'
	DB	'ailed', 00H					; `string'
CONST	ENDS
;	COMDAT ??_C@_0BG@ILJLLCHH@?6?5?5array?5query?5failed@
CONST	SEGMENT
??_C@_0BG@ILJLLCHH@?6?5?5array?5query?5failed@ DB 0aH, '  array query fai'
	DB	'led', 00H					; `string'
CONST	ENDS
;	COMDAT ??_C@_03BMMPKCMF@?6?5?5@
CONST	SEGMENT
??_C@_03BMMPKCMF@?6?5?5@ DB 0aH, '  ', 00H		; `string'
CONST	ENDS
;	COMDAT ??_C@_0M@KEBHBLHF@?6?5?5first?5?$DN?5@
CONST	SEGMENT
??_C@_0M@KEBHBLHF@?6?5?5first?5?$DN?5@ DB 0aH, '  first = ', 00H ; `string'
CONST	ENDS
;	COMDAT ??_C@_09PJIBMAOO@?0?5last?5?$DN?5@
CONST	SEGMENT
??_C@_09PJIBMAOO@?0?5last?5?$DN?5@ DB ', last = ', 00H	; `string'
CONST	ENDS
;	COMDAT ??_C@_0CI@EDPLBKEE@?6?5?$DN?$DN?$DN?$DN?$DN?$DN?$DN?$DN?$DN?$DN?$DN?$DN?$DN?$DN?$DN?$DN?$DN?$DN?$DN?$DN?$DN?$DN?$DN?$DN?$DN?$DN?$DN?$DN?$DN@
CONST	SEGMENT
??_C@_0CI@EDPLBKEE@?6?5?$DN?$DN?$DN?$DN?$DN?$DN?$DN?$DN?$DN?$DN?$DN?$DN?$DN?$DN?$DN?$DN?$DN?$DN?$DN?$DN?$DN?$DN?$DN?$DN?$DN?$DN?$DN?$DN?$DN@ DB 0aH
	DB	' ====================================', 0aH, 00H ; `string'
CONST	ENDS
;	COMDAT ??_C@_0CG@PJKAEDDD@?6?5?5Demonstrating?5Function?5Overl@
CONST	SEGMENT
??_C@_0CG@PJKAEDDD@?6?5?5Demonstrating?5Function?5Overl@ DB 0aH, '  Demon'
	DB	'strating Function Overloading', 00H		; `string'
CONST	ENDS
;	COMDAT ??_C@_0BG@GBJODOCB@no?5contents?5in?5vector@
CONST	SEGMENT
??_C@_0BG@GBJODOCB@no?5contents?5in?5vector@ DB 'no contents in vector', 00H ; `string'
CONST	ENDS
;	COMDAT ??_C@_0BF@GJAJHPMJ@no?5contents?5in?5array@
CONST	SEGMENT
??_C@_0BF@GJAJHPMJ@no?5contents?5in?5array@ DB 'no contents in array', 00H ; `string'
CONST	ENDS
;	COMDAT __CTA1?AVexception@std@@
xdata$x	SEGMENT
__CTA1?AVexception@std@@ DD 01H
	DD	FLAT:__CT??_R0?AVexception@std@@@8??0exception@std@@QAE@ABV01@@Z12
xdata$x	ENDS
;	COMDAT __TI1?AVexception@std@@
xdata$x	SEGMENT
__TI1?AVexception@std@@ DD 00H
	DD	FLAT:??1exception@std@@UAE@XZ
	DD	00H
	DD	FLAT:__CTA1?AVexception@std@@
xdata$x	ENDS
;	COMDAT __CT??_R0?AVbad_optional_access@std@@@8??0bad_optional_access@std@@QAE@ABV01@@Z12
xdata$x	SEGMENT
__CT??_R0?AVbad_optional_access@std@@@8??0bad_optional_access@std@@QAE@ABV01@@Z12 DD 00H
	DD	FLAT:??_R0?AVbad_optional_access@std@@@8
	DD	00H
	DD	0ffffffffH
	ORG $+4
	DD	0cH
	DD	FLAT:??0bad_optional_access@std@@QAE@ABV01@@Z
xdata$x	ENDS
;	COMDAT ??_R0?AVbad_optional_access@std@@@8
data$r	SEGMENT
??_R0?AVbad_optional_access@std@@@8 DD FLAT:??_7type_info@@6B@ ; std::bad_optional_access `RTTI Type Descriptor'
	DD	00H
	DB	'.?AVbad_optional_access@std@@', 00H
data$r	ENDS
;	COMDAT __CTA2?AVbad_optional_access@std@@
xdata$x	SEGMENT
__CTA2?AVbad_optional_access@std@@ DD 02H
	DD	FLAT:__CT??_R0?AVbad_optional_access@std@@@8??0bad_optional_access@std@@QAE@ABV01@@Z12
	DD	FLAT:__CT??_R0?AVexception@std@@@8??0exception@std@@QAE@ABV01@@Z12
xdata$x	ENDS
;	COMDAT __TI2?AVbad_optional_access@std@@
xdata$x	SEGMENT
__TI2?AVbad_optional_access@std@@ DD 00H
	DD	FLAT:??1bad_optional_access@std@@UAE@XZ
	DD	00H
	DD	FLAT:__CTA2?AVbad_optional_access@std@@
xdata$x	ENDS
;	COMDAT ??_C@_0BE@LMOOKEAD@Bad?5optional?5access@
CONST	SEGMENT
??_C@_0BE@LMOOKEAD@Bad?5optional?5access@ DB 'Bad optional access', 00H ; `string'
CONST	ENDS
;	COMDAT ??_7bad_optional_access@std@@6B@
CONST	SEGMENT
??_7bad_optional_access@std@@6B@ DD FLAT:??_R4bad_optional_access@std@@6B@ ; std::bad_optional_access::`vftable'
	DD	FLAT:??_Ebad_optional_access@std@@UAEPAXI@Z
	DD	FLAT:?what@bad_optional_access@std@@UBEPBDXZ
CONST	ENDS
;	COMDAT ??_C@_1CG@JNLFBNGN@?$AA?$CC?$AAi?$AAn?$AAv?$AAa?$AAl?$AAi?$AAd?$AA?5?$AAa?$AAr?$AAg?$AAu?$AAm?$AAe@
CONST	SEGMENT
??_C@_1CG@JNLFBNGN@?$AA?$CC?$AAi?$AAn?$AAv?$AAa?$AAl?$AAi?$AAd?$AA?5?$AAa?$AAr?$AAg?$AAu?$AAm?$AAe@ DB '"'
	DB	00H, 'i', 00H, 'n', 00H, 'v', 00H, 'a', 00H, 'l', 00H, 'i', 00H
	DB	'd', 00H, ' ', 00H, 'a', 00H, 'r', 00H, 'g', 00H, 'u', 00H, 'm'
	DB	00H, 'e', 00H, 'n', 00H, 't', 00H, '"', 00H, 00H, 00H ; `string'
CONST	ENDS
;	COMDAT ??_C@_1EK@NIFDJFDG@?$AAs?$AAt?$AAd?$AA?3?$AA?3?$AA_?$AAA?$AAd?$AAj?$AAu?$AAs?$AAt?$AA_?$AAm?$AAa@
CONST	SEGMENT
??_C@_1EK@NIFDJFDG@?$AAs?$AAt?$AAd?$AA?3?$AA?3?$AA_?$AAA?$AAd?$AAj?$AAu?$AAs?$AAt?$AA_?$AAm?$AAa@ DB 's'
	DB	00H, 't', 00H, 'd', 00H, ':', 00H, ':', 00H, '_', 00H, 'A', 00H
	DB	'd', 00H, 'j', 00H, 'u', 00H, 's', 00H, 't', 00H, '_', 00H, 'm'
	DB	00H, 'a', 00H, 'n', 00H, 'u', 00H, 'a', 00H, 'l', 00H, 'l', 00H
	DB	'y', 00H, '_', 00H, 'v', 00H, 'e', 00H, 'c', 00H, 't', 00H, 'o'
	DB	00H, 'r', 00H, '_', 00H, 'a', 00H, 'l', 00H, 'i', 00H, 'g', 00H
	DB	'n', 00H, 'e', 00H, 'd', 00H, 00H, 00H	; `string'
CONST	ENDS
;	COMDAT ??_C@_1NA@CDBIFGMM@?$AAC?$AA?3?$AA?2?$AAP?$AAr?$AAo?$AAg?$AAr?$AAa?$AAm?$AA?5?$AAF?$AAi?$AAl?$AAe@
CONST	SEGMENT
??_C@_1NA@CDBIFGMM@?$AAC?$AA?3?$AA?2?$AAP?$AAr?$AAo?$AAg?$AAr?$AAa?$AAm?$AA?5?$AAF?$AAi?$AAl?$AAe@ DB 'C'
	DB	00H, ':', 00H, '\', 00H, 'P', 00H, 'r', 00H, 'o', 00H, 'g', 00H
	DB	'r', 00H, 'a', 00H, 'm', 00H, ' ', 00H, 'F', 00H, 'i', 00H, 'l'
	DB	00H, 'e', 00H, 's', 00H, ' ', 00H, '(', 00H, 'x', 00H, '8', 00H
	DB	'6', 00H, ')', 00H, '\', 00H, 'M', 00H, 'i', 00H, 'c', 00H, 'r'
	DB	00H, 'o', 00H, 's', 00H, 'o', 00H, 'f', 00H, 't', 00H, ' ', 00H
	DB	'V', 00H, 'i', 00H, 's', 00H, 'u', 00H, 'a', 00H, 'l', 00H, ' '
	DB	00H, 'S', 00H, 't', 00H, 'u', 00H, 'd', 00H, 'i', 00H, 'o', 00H
	DB	'\', 00H, '2', 00H, '0', 00H, '1', 00H, '9', 00H, '\', 00H, 'C'
	DB	00H, 'o', 00H, 'm', 00H, 'm', 00H, 'u', 00H, 'n', 00H, 'i', 00H
	DB	't', 00H, 'y', 00H, '\', 00H, 'V', 00H, 'C', 00H, '\', 00H, 'T'
	DB	00H, 'o', 00H, 'o', 00H, 'l', 00H, 's', 00H, '\', 00H, 'M', 00H
	DB	'S', 00H, 'V', 00H, 'C', 00H, '\', 00H, '1', 00H, '4', 00H, '.'
	DB	00H, '2', 00H, '3', 00H, '.', 00H, '2', 00H, '8', 00H, '1', 00H
	DB	'0', 00H, '5', 00H, '\', 00H, 'i', 00H, 'n', 00H, 'c', 00H, 'l'
	DB	00H, 'u', 00H, 'd', 00H, 'e', 00H, '\', 00H, 'x', 00H, 'm', 00H
	DB	'e', 00H, 'm', 00H, 'o', 00H, 'r', 00H, 'y', 00H, 00H, 00H ; `string'
CONST	ENDS
;	COMDAT ??_C@_0GI@FJIKDGOA@C?3?2Program?5Files?5?$CIx86?$CJ?2Microsof@
CONST	SEGMENT
??_C@_0GI@FJIKDGOA@C?3?2Program?5Files?5?$CIx86?$CJ?2Microsof@ DB 'C:\Pro'
	DB	'gram Files (x86)\Microsoft Visual Studio\2019\Community\VC\To'
	DB	'ols\MSVC\14.23.28105\include\xmemory', 00H	; `string'
CONST	ENDS
;	COMDAT ??_C@_02DKCKIIND@?$CFs@
CONST	SEGMENT
??_C@_02DKCKIIND@?$CFs@ DB '%s', 00H			; `string'
CONST	ENDS
;	COMDAT ??_C@_0BB@FCMFBGOM@invalid?5argument@
CONST	SEGMENT
??_C@_0BB@FCMFBGOM@invalid?5argument@ DB 'invalid argument', 00H ; `string'
CONST	ENDS
;	COMDAT ?__LINE__Var@?0??_Adjust_manually_vector_aligned@std@@YAXAAPAXAAI@Z@4JA
_DATA	SEGMENT
?__LINE__Var@?0??_Adjust_manually_vector_aligned@std@@YAXAAPAXAAI@Z@4JA DD 066H ; `std::_Adjust_manually_vector_aligned'::`1'::__LINE__Var
_DATA	ENDS
;	COMDAT __CT??_R0?AVexception@std@@@8??0exception@std@@QAE@ABV01@@Z12
xdata$x	SEGMENT
__CT??_R0?AVexception@std@@@8??0exception@std@@QAE@ABV01@@Z12 DD 00H
	DD	FLAT:??_R0?AVexception@std@@@8
	DD	00H
	DD	0ffffffffH
	ORG $+4
	DD	0cH
	DD	FLAT:??0exception@std@@QAE@ABV01@@Z
xdata$x	ENDS
;	COMDAT ??_R0?AVexception@std@@@8
data$r	SEGMENT
??_R0?AVexception@std@@@8 DD FLAT:??_7type_info@@6B@	; std::exception `RTTI Type Descriptor'
	DD	00H
	DB	'.?AVexception@std@@', 00H
data$r	ENDS
;	COMDAT __CT??_R0?AVbad_alloc@std@@@8??0bad_alloc@std@@QAE@ABV01@@Z12
xdata$x	SEGMENT
__CT??_R0?AVbad_alloc@std@@@8??0bad_alloc@std@@QAE@ABV01@@Z12 DD 010H
	DD	FLAT:??_R0?AVbad_alloc@std@@@8
	DD	00H
	DD	0ffffffffH
	ORG $+4
	DD	0cH
	DD	FLAT:??0bad_alloc@std@@QAE@ABV01@@Z
xdata$x	ENDS
;	COMDAT ??_R0?AVbad_alloc@std@@@8
data$r	SEGMENT
??_R0?AVbad_alloc@std@@@8 DD FLAT:??_7type_info@@6B@	; std::bad_alloc `RTTI Type Descriptor'
	DD	00H
	DB	'.?AVbad_alloc@std@@', 00H
data$r	ENDS
;	COMDAT __CT??_R0?AVbad_array_new_length@std@@@8??0bad_array_new_length@std@@QAE@ABV01@@Z12
xdata$x	SEGMENT
__CT??_R0?AVbad_array_new_length@std@@@8??0bad_array_new_length@std@@QAE@ABV01@@Z12 DD 00H
	DD	FLAT:??_R0?AVbad_array_new_length@std@@@8
	DD	00H
	DD	0ffffffffH
	ORG $+4
	DD	0cH
	DD	FLAT:??0bad_array_new_length@std@@QAE@ABV01@@Z
xdata$x	ENDS
;	COMDAT ??_R0?AVbad_array_new_length@std@@@8
data$r	SEGMENT
??_R0?AVbad_array_new_length@std@@@8 DD FLAT:??_7type_info@@6B@ ; std::bad_array_new_length `RTTI Type Descriptor'
	DD	00H
	DB	'.?AVbad_array_new_length@std@@', 00H
data$r	ENDS
;	COMDAT __CTA3?AVbad_array_new_length@std@@
xdata$x	SEGMENT
__CTA3?AVbad_array_new_length@std@@ DD 03H
	DD	FLAT:__CT??_R0?AVbad_array_new_length@std@@@8??0bad_array_new_length@std@@QAE@ABV01@@Z12
	DD	FLAT:__CT??_R0?AVbad_alloc@std@@@8??0bad_alloc@std@@QAE@ABV01@@Z12
	DD	FLAT:__CT??_R0?AVexception@std@@@8??0exception@std@@QAE@ABV01@@Z12
xdata$x	ENDS
;	COMDAT __TI3?AVbad_array_new_length@std@@
xdata$x	SEGMENT
__TI3?AVbad_array_new_length@std@@ DD 00H
	DD	FLAT:??1bad_array_new_length@std@@UAE@XZ
	DD	00H
	DD	FLAT:__CTA3?AVbad_array_new_length@std@@
xdata$x	ENDS
;	COMDAT ??_C@_0BF@KINCDENJ@bad?5array?5new?5length@
CONST	SEGMENT
??_C@_0BF@KINCDENJ@bad?5array?5new?5length@ DB 'bad array new length', 00H ; `string'
CONST	ENDS
;	COMDAT ??_7bad_array_new_length@std@@6B@
CONST	SEGMENT
??_7bad_array_new_length@std@@6B@ DD FLAT:??_R4bad_array_new_length@std@@6B@ ; std::bad_array_new_length::`vftable'
	DD	FLAT:??_Ebad_array_new_length@std@@UAEPAXI@Z
	DD	FLAT:?what@exception@std@@UBEPBDXZ
CONST	ENDS
;	COMDAT ??_7bad_alloc@std@@6B@
CONST	SEGMENT
??_7bad_alloc@std@@6B@ DD FLAT:??_R4bad_alloc@std@@6B@	; std::bad_alloc::`vftable'
	DD	FLAT:??_Ebad_alloc@std@@UAEPAXI@Z
	DD	FLAT:?what@exception@std@@UBEPBDXZ
CONST	ENDS
;	COMDAT ??_C@_0BC@EOODALEL@Unknown?5exception@
CONST	SEGMENT
??_C@_0BC@EOODALEL@Unknown?5exception@ DB 'Unknown exception', 00H ; `string'
CONST	ENDS
;	COMDAT ??_7exception@std@@6B@
CONST	SEGMENT
??_7exception@std@@6B@ DD FLAT:??_R4exception@std@@6B@	; std::exception::`vftable'
	DD	FLAT:??_Eexception@std@@UAEPAXI@Z
	DD	FLAT:?what@exception@std@@UBEPBDXZ
CONST	ENDS
;	COMDAT xdata$x
xdata$x	SEGMENT
__ehfuncinfo$??$addressof@U?$pair@HH@std@@@std@@YAPAU?$pair@HH@0@AAU10@@Z DD 019930522H
	DD	00H
	DD	00H
	DD	2 DUP(00H)
	DD	2 DUP(00H)
	DD	00H
	DD	05H
xdata$x	ENDS
;	COMDAT xdata$x
xdata$x	SEGMENT
__ehfuncinfo$??$addressof@U?$pair@NN@std@@@std@@YAPAU?$pair@NN@0@AAU10@@Z DD 019930522H
	DD	00H
	DD	00H
	DD	2 DUP(00H)
	DD	2 DUP(00H)
	DD	00H
	DD	05H
xdata$x	ENDS
;	COMDAT xdata$x
xdata$x	SEGMENT
__ehfuncinfo$??$_Construct_in_place@U?$pair@HH@std@@U12@@std@@YAXAAU?$pair@HH@0@$$QAU10@@Z DD 019930522H
	DD	00H
	DD	00H
	DD	2 DUP(00H)
	DD	2 DUP(00H)
	DD	00H
	DD	05H
xdata$x	ENDS
;	COMDAT xdata$x
xdata$x	SEGMENT
__ehfuncinfo$??$_Construct_in_place@U?$pair@NN@std@@U12@@std@@YAXAAU?$pair@NN@0@$$QAU10@@Z DD 019930522H
	DD	00H
	DD	00H
	DD	2 DUP(00H)
	DD	2 DUP(00H)
	DD	00H
	DD	05H
xdata$x	ENDS
;	COMDAT xdata$x
xdata$x	SEGMENT
__ehfuncinfo$??$forward@H@std@@YA$$QAHAAH@Z DD 019930522H
	DD	00H
	DD	00H
	DD	2 DUP(00H)
	DD	2 DUP(00H)
	DD	00H
	DD	05H
xdata$x	ENDS
;	COMDAT xdata$x
xdata$x	SEGMENT
__ehfuncinfo$??$forward@N@std@@YA$$QANAAN@Z DD 019930522H
	DD	00H
	DD	00H
	DD	2 DUP(00H)
	DD	2 DUP(00H)
	DD	00H
	DD	05H
xdata$x	ENDS
;	COMDAT xdata$x
xdata$x	SEGMENT
__ehfuncinfo$??$_Pair_get@AAHU?$pair@HH@std@@@std@@YAAAHAAU?$pair@HH@0@U?$integral_constant@I$0A@@0@@Z DD 019930522H
	DD	00H
	DD	00H
	DD	2 DUP(00H)
	DD	2 DUP(00H)
	DD	00H
	DD	05H
xdata$x	ENDS
;	COMDAT xdata$x
xdata$x	SEGMENT
__ehfuncinfo$??$_Pair_get@AAHU?$pair@HH@std@@@std@@YAAAHAAU?$pair@HH@0@U?$integral_constant@I$00@0@@Z DD 019930522H
	DD	00H
	DD	00H
	DD	2 DUP(00H)
	DD	2 DUP(00H)
	DD	00H
	DD	05H
xdata$x	ENDS
;	COMDAT xdata$x
xdata$x	SEGMENT
__ehfuncinfo$??$_Pair_get@AANU?$pair@NN@std@@@std@@YAAANAAU?$pair@NN@0@U?$integral_constant@I$0A@@0@@Z DD 019930522H
	DD	00H
	DD	00H
	DD	2 DUP(00H)
	DD	2 DUP(00H)
	DD	00H
	DD	05H
xdata$x	ENDS
;	COMDAT xdata$x
xdata$x	SEGMENT
__ehfuncinfo$??$_Pair_get@AANU?$pair@NN@std@@@std@@YAAANAAU?$pair@NN@0@U?$integral_constant@I$00@0@@Z DD 019930522H
	DD	00H
	DD	00H
	DD	2 DUP(00H)
	DD	2 DUP(00H)
	DD	00H
	DD	05H
xdata$x	ENDS
;	COMDAT xdata$x
xdata$x	SEGMENT
__ehfuncinfo$??1?$_Tidy_guard@V?$vector@HV?$allocator@H@std@@@std@@@std@@QAE@XZ DD 019930522H
	DD	00H
	DD	00H
	DD	2 DUP(00H)
	DD	2 DUP(00H)
	DD	00H
	DD	05H
xdata$x	ENDS
;	COMDAT xdata$x
xdata$x	SEGMENT
__ehfuncinfo$??$forward@ABV?$allocator@H@std@@@std@@YAABV?$allocator@H@0@ABV10@@Z DD 019930522H
	DD	00H
	DD	00H
	DD	2 DUP(00H)
	DD	2 DUP(00H)
	DD	00H
	DD	05H
xdata$x	ENDS
;	COMDAT xdata$x
xdata$x	SEGMENT
__ehfuncinfo$??$_Deallocate_plain@V?$allocator@U_Container_proxy@std@@@std@@@std@@YAXAAV?$allocator@U_Container_proxy@std@@@0@QAU_Container_proxy@0@@Z DD 019930522H
	DD	00H
	DD	00H
	DD	2 DUP(00H)
	DD	2 DUP(00H)
	DD	00H
	DD	05H
xdata$x	ENDS
;	COMDAT xdata$x
xdata$x	SEGMENT
__ehfuncinfo$??$forward@$$QAH@std@@YA$$QAHAAH@Z DD 019930522H
	DD	00H
	DD	00H
	DD	2 DUP(00H)
	DD	2 DUP(00H)
	DD	00H
	DD	05H
xdata$x	ENDS
;	COMDAT xdata$x
xdata$x	SEGMENT
__ehfuncinfo$??$forward@$$QAN@std@@YA$$QANAAN@Z DD 019930522H
	DD	00H
	DD	00H
	DD	2 DUP(00H)
	DD	2 DUP(00H)
	DD	00H
	DD	05H
xdata$x	ENDS
;	COMDAT xdata$x
xdata$x	SEGMENT
__ehfuncinfo$??$forward@U?$pair@HH@std@@@std@@YA$$QAU?$pair@HH@0@AAU10@@Z DD 019930522H
	DD	00H
	DD	00H
	DD	2 DUP(00H)
	DD	2 DUP(00H)
	DD	00H
	DD	05H
xdata$x	ENDS
;	COMDAT xdata$x
xdata$x	SEGMENT
__ehfuncinfo$??$forward@U?$pair@NN@std@@@std@@YA$$QAU?$pair@NN@0@AAU10@@Z DD 019930522H
	DD	00H
	DD	00H
	DD	2 DUP(00H)
	DD	2 DUP(00H)
	DD	00H
	DD	05H
xdata$x	ENDS
;	COMDAT xdata$x
xdata$x	SEGMENT
__ehfuncinfo$??$forward@AAN@std@@YAAANAAN@Z DD 019930522H
	DD	00H
	DD	00H
	DD	2 DUP(00H)
	DD	2 DUP(00H)
	DD	00H
	DD	05H
xdata$x	ENDS
;	COMDAT xdata$x
xdata$x	SEGMENT
__ehfuncinfo$??$forward@PAU_Container_base12@std@@@std@@YA$$QAPAU_Container_base12@0@AAPAU10@@Z DD 019930522H
	DD	00H
	DD	00H
	DD	2 DUP(00H)
	DD	2 DUP(00H)
	DD	00H
	DD	05H
xdata$x	ENDS
;	COMDAT xdata$x
xdata$x	SEGMENT
__ehfuncinfo$??$addressof@U_Container_proxy@std@@@std@@YAPAU_Container_proxy@0@AAU10@@Z DD 019930522H
	DD	00H
	DD	00H
	DD	2 DUP(00H)
	DD	2 DUP(00H)
	DD	00H
	DD	05H
xdata$x	ENDS
;	COMDAT xdata$x
xdata$x	SEGMENT
__ehfuncinfo$??$_Destroy_range@V?$allocator@H@std@@@std@@YAXPAHQAHAAV?$allocator@H@0@@Z DD 019930522H
	DD	00H
	DD	00H
	DD	2 DUP(00H)
	DD	2 DUP(00H)
	DD	00H
	DD	05H
xdata$x	ENDS
;	COMDAT xdata$x
xdata$x	SEGMENT
__ehfuncinfo$??$_Deallocate@$07$0A@@std@@YAXPAXI@Z DD 019930522H
	DD	00H
	DD	00H
	DD	2 DUP(00H)
	DD	2 DUP(00H)
	DD	00H
	DD	05H
xdata$x	ENDS
;	COMDAT xdata$x
xdata$x	SEGMENT
__ehfuncinfo$??1sentry@?$basic_ostream@DU?$char_traits@D@std@@@std@@QAE@XZ DD 019930522H
	DD	00H
	DD	00H
	DD	2 DUP(00H)
	DD	2 DUP(00H)
	DD	00H
	DD	05H
xdata$x	ENDS
;	COMDAT xdata$x
xdata$x	SEGMENT
__unwindtable$??0sentry@?$basic_ostream@DU?$char_traits@D@std@@@std@@QAE@AAV12@@Z DD 0ffffffffH
	DD	FLAT:__unwindfunclet$??0sentry@?$basic_ostream@DU?$char_traits@D@std@@@std@@QAE@AAV12@@Z$0
__ehfuncinfo$??0sentry@?$basic_ostream@DU?$char_traits@D@std@@@std@@QAE@AAV12@@Z DD 019930522H
	DD	01H
	DD	FLAT:__unwindtable$??0sentry@?$basic_ostream@DU?$char_traits@D@std@@@std@@QAE@AAV12@@Z
	DD	2 DUP(00H)
	DD	2 DUP(00H)
	DD	00H
	DD	01H
xdata$x	ENDS
;	COMDAT xdata$x
xdata$x	SEGMENT
__ehfuncinfo$??1_Sentry_base@?$basic_ostream@DU?$char_traits@D@std@@@std@@QAE@XZ DD 019930522H
	DD	00H
	DD	00H
	DD	2 DUP(00H)
	DD	2 DUP(00H)
	DD	00H
	DD	05H
xdata$x	ENDS
;	COMDAT xdata$x
xdata$x	SEGMENT
__unwindtable$??$_Range_construct_or_tidy@PBH@?$vector@HV?$allocator@H@std@@@std@@AAEXPBH0Uforward_iterator_tag@1@@Z DD 0ffffffffH
	DD	FLAT:__unwindfunclet$??$_Range_construct_or_tidy@PBH@?$vector@HV?$allocator@H@std@@@std@@AAEXPBH0Uforward_iterator_tag@1@@Z$0
__ehfuncinfo$??$_Range_construct_or_tidy@PBH@?$vector@HV?$allocator@H@std@@@std@@AAEXPBH0Uforward_iterator_tag@1@@Z DD 019930522H
	DD	01H
	DD	FLAT:__unwindtable$??$_Range_construct_or_tidy@PBH@?$vector@HV?$allocator@H@std@@@std@@AAEXPBH0Uforward_iterator_tag@1@@Z
	DD	2 DUP(00H)
	DD	2 DUP(00H)
	DD	00H
	DD	01H
xdata$x	ENDS
;	COMDAT xdata$x
xdata$x	SEGMENT
__ehfuncinfo$??1?$_Container_proxy_ptr12@V?$allocator@U_Container_proxy@std@@@std@@@std@@QAE@XZ DD 019930522H
	DD	00H
	DD	00H
	DD	2 DUP(00H)
	DD	2 DUP(00H)
	DD	00H
	DD	05H
xdata$x	ENDS
;	COMDAT xdata$x
xdata$x	SEGMENT
__ehfuncinfo$??$_Delete_plain_internal@V?$allocator@U_Container_proxy@std@@@std@@@std@@YAXAAV?$allocator@U_Container_proxy@std@@@0@QAU_Container_proxy@0@@Z DD 019930522H
	DD	00H
	DD	00H
	DD	2 DUP(00H)
	DD	2 DUP(00H)
	DD	00H
	DD	05H
xdata$x	ENDS
;	COMDAT xdata$x
xdata$x	SEGMENT
__ehfuncinfo$??$?0H@?$allocator@U_Container_proxy@std@@@std@@QAE@ABV?$allocator@H@1@@Z DD 019930522H
	DD	00H
	DD	00H
	DD	2 DUP(00H)
	DD	2 DUP(00H)
	DD	00H
	DD	05H
xdata$x	ENDS
;	COMDAT xdata$x
xdata$x	SEGMENT
__ehfuncinfo$??$get@$00HH@std@@YAAAHAAU?$pair@HH@0@@Z DD 019930522H
	DD	00H
	DD	00H
	DD	2 DUP(00H)
	DD	2 DUP(00H)
	DD	00H
	DD	05H
xdata$x	ENDS
;	COMDAT xdata$x
xdata$x	SEGMENT
__ehfuncinfo$??$get@$00HH@std@@YA$$QAH$$QAU?$pair@HH@0@@Z DD 019930522H
	DD	00H
	DD	00H
	DD	2 DUP(00H)
	DD	2 DUP(00H)
	DD	00H
	DD	05H
xdata$x	ENDS
;	COMDAT xdata$x
xdata$x	SEGMENT
__ehfuncinfo$??$get@$0A@HH@std@@YAAAHAAU?$pair@HH@0@@Z DD 019930522H
	DD	00H
	DD	00H
	DD	2 DUP(00H)
	DD	2 DUP(00H)
	DD	00H
	DD	05H
xdata$x	ENDS
;	COMDAT xdata$x
xdata$x	SEGMENT
__ehfuncinfo$??$get@$0A@HH@std@@YA$$QAH$$QAU?$pair@HH@0@@Z DD 019930522H
	DD	00H
	DD	00H
	DD	2 DUP(00H)
	DD	2 DUP(00H)
	DD	00H
	DD	05H
xdata$x	ENDS
;	COMDAT xdata$x
xdata$x	SEGMENT
__ehfuncinfo$??$get@$00NN@std@@YAAANAAU?$pair@NN@0@@Z DD 019930522H
	DD	00H
	DD	00H
	DD	2 DUP(00H)
	DD	2 DUP(00H)
	DD	00H
	DD	05H
xdata$x	ENDS
;	COMDAT xdata$x
xdata$x	SEGMENT
__ehfuncinfo$??$get@$00NN@std@@YA$$QAN$$QAU?$pair@NN@0@@Z DD 019930522H
	DD	00H
	DD	00H
	DD	2 DUP(00H)
	DD	2 DUP(00H)
	DD	00H
	DD	05H
xdata$x	ENDS
;	COMDAT xdata$x
xdata$x	SEGMENT
__ehfuncinfo$??$get@$0A@NN@std@@YAAANAAU?$pair@NN@0@@Z DD 019930522H
	DD	00H
	DD	00H
	DD	2 DUP(00H)
	DD	2 DUP(00H)
	DD	00H
	DD	05H
xdata$x	ENDS
;	COMDAT xdata$x
xdata$x	SEGMENT
__ehfuncinfo$??$get@$0A@NN@std@@YA$$QAN$$QAU?$pair@NN@0@@Z DD 019930522H
	DD	00H
	DD	00H
	DD	2 DUP(00H)
	DD	2 DUP(00H)
	DD	00H
	DD	05H
xdata$x	ENDS
;	COMDAT xdata$x
xdata$x	SEGMENT
__ehfuncinfo$?end@?$initializer_list@H@std@@QBEPBHXZ DD 019930522H
	DD	00H
	DD	00H
	DD	2 DUP(00H)
	DD	2 DUP(00H)
	DD	00H
	DD	05H
xdata$x	ENDS
;	COMDAT xdata$x
xdata$x	SEGMENT
__ehfuncinfo$?begin@?$initializer_list@H@std@@QBEPBHXZ DD 019930522H
	DD	00H
	DD	00H
	DD	2 DUP(00H)
	DD	2 DUP(00H)
	DD	00H
	DD	05H
xdata$x	ENDS
;	COMDAT xdata$x
xdata$x	SEGMENT
__ehfuncinfo$??0?$initializer_list@H@std@@QAE@PBH0@Z DD 019930522H
	DD	00H
	DD	00H
	DD	2 DUP(00H)
	DD	2 DUP(00H)
	DD	00H
	DD	05H
xdata$x	ENDS
;	COMDAT xdata$x
xdata$x	SEGMENT
__catchsym$??$?6U?$char_traits@D@std@@@std@@YAAAV?$basic_ostream@DU?$char_traits@D@std@@@0@AAV10@PBD@Z$3 DD 040H
	DD	00H
	DD	00H
	DD	FLAT:__catch$??$?6U?$char_traits@D@std@@@std@@YAAAV?$basic_ostream@DU?$char_traits@D@std@@@0@AAV10@PBD@Z$0
__tryblocktable$??$?6U?$char_traits@D@std@@@std@@YAAAV?$basic_ostream@DU?$char_traits@D@std@@@0@AAV10@PBD@Z DD 01H
	DD	01H
	DD	02H
	DD	01H
	DD	FLAT:__catchsym$??$?6U?$char_traits@D@std@@@std@@YAAAV?$basic_ostream@DU?$char_traits@D@std@@@0@AAV10@PBD@Z$3
__unwindtable$??$?6U?$char_traits@D@std@@@std@@YAAAV?$basic_ostream@DU?$char_traits@D@std@@@0@AAV10@PBD@Z DD 0ffffffffH
	DD	FLAT:__unwindfunclet$??$?6U?$char_traits@D@std@@@std@@YAAAV?$basic_ostream@DU?$char_traits@D@std@@@0@AAV10@PBD@Z$2
	DD	00H
	DD	00H
	DD	00H
	DD	00H
__ehfuncinfo$??$?6U?$char_traits@D@std@@@std@@YAAAV?$basic_ostream@DU?$char_traits@D@std@@@0@AAV10@PBD@Z DD 019930522H
	DD	03H
	DD	FLAT:__unwindtable$??$?6U?$char_traits@D@std@@@std@@YAAAV?$basic_ostream@DU?$char_traits@D@std@@@0@AAV10@PBD@Z
	DD	01H
	DD	FLAT:__tryblocktable$??$?6U?$char_traits@D@std@@@std@@YAAAV?$basic_ostream@DU?$char_traits@D@std@@@0@AAV10@PBD@Z
	DD	2 DUP(00H)
	DD	00H
	DD	01H
xdata$x	ENDS
;	COMDAT xdata$x
xdata$x	SEGMENT
__catchsym$_main$3 DD 08H
	DD	FLAT:??_R0?AVexception@std@@@8
	DD	0ffffff4cH
	DD	FLAT:__catch$_main$0
__tryblocktable$_main DD 01H
	DD	01H
	DD	02H
	DD	01H
	DD	FLAT:__catchsym$_main$3
__unwindtable$_main DD 0ffffffffH
	DD	FLAT:__unwindfunclet$_main$2
	DD	00H
	DD	00H
	DD	00H
	DD	00H
__ehfuncinfo$_main DD 019930522H
	DD	03H
	DD	FLAT:__unwindtable$_main
	DD	01H
	DD	FLAT:__tryblocktable$_main
	DD	2 DUP(00H)
	DD	00H
	DD	01H
xdata$x	ENDS
;	COMDAT xdata$x
xdata$x	SEGMENT
__ehfuncinfo$?has_value@?$optional@U?$pair@HH@std@@@std@@QBE_NXZ DD 019930522H
	DD	00H
	DD	00H
	DD	2 DUP(00H)
	DD	2 DUP(00H)
	DD	00H
	DD	05H
xdata$x	ENDS
;	COMDAT xdata$x
xdata$x	SEGMENT
__ehfuncinfo$??0?$optional@U?$pair@HH@std@@@std@@QAE@XZ DD 019930522H
	DD	00H
	DD	00H
	DD	2 DUP(00H)
	DD	2 DUP(00H)
	DD	00H
	DD	05H
xdata$x	ENDS
;	COMDAT xdata$x
xdata$x	SEGMENT
__ehfuncinfo$??0?$_Non_trivial_move_assign@U?$_Optional_construct_base@U?$pair@HH@std@@@std@@U?$pair@HH@2@@std@@QAE@XZ DD 019930522H
	DD	00H
	DD	00H
	DD	2 DUP(00H)
	DD	2 DUP(00H)
	DD	00H
	DD	05H
xdata$x	ENDS
;	COMDAT xdata$x
xdata$x	SEGMENT
__ehfuncinfo$??0?$_Non_trivial_copy_assign@U?$_Optional_construct_base@U?$pair@HH@std@@@std@@U?$pair@HH@2@@std@@QAE@XZ DD 019930522H
	DD	00H
	DD	00H
	DD	2 DUP(00H)
	DD	2 DUP(00H)
	DD	00H
	DD	05H
xdata$x	ENDS
;	COMDAT xdata$x
xdata$x	SEGMENT
__ehfuncinfo$?_Get@?$_Optional_construct_base@U?$pair@HH@std@@@std@@QGAEAAU?$pair@HH@2@XZ DD 019930522H
	DD	00H
	DD	00H
	DD	2 DUP(00H)
	DD	2 DUP(00H)
	DD	00H
	DD	05H
xdata$x	ENDS
;	COMDAT xdata$x
xdata$x	SEGMENT
__ehfuncinfo$??0?$_Optional_destruct_base@U?$pair@HH@std@@$00@std@@QAE@XZ DD 019930522H
	DD	00H
	DD	00H
	DD	2 DUP(00H)
	DD	2 DUP(00H)
	DD	00H
	DD	05H
xdata$x	ENDS
;	COMDAT xdata$x
xdata$x	SEGMENT
__ehfuncinfo$??$?4U?$pair@HH@std@@$0A@@?$pair@HH@std@@QAEAAU01@$$QAU01@@Z DD 019930522H
	DD	00H
	DD	00H
	DD	2 DUP(00H)
	DD	2 DUP(00H)
	DD	00H
	DD	05H
xdata$x	ENDS
;	COMDAT xdata$x
xdata$x	SEGMENT
__ehfuncinfo$?has_value@?$optional@U?$pair@NN@std@@@std@@QBE_NXZ DD 019930522H
	DD	00H
	DD	00H
	DD	2 DUP(00H)
	DD	2 DUP(00H)
	DD	00H
	DD	05H
xdata$x	ENDS
;	COMDAT xdata$x
xdata$x	SEGMENT
__ehfuncinfo$??0?$optional@U?$pair@NN@std@@@std@@QAE@XZ DD 019930522H
	DD	00H
	DD	00H
	DD	2 DUP(00H)
	DD	2 DUP(00H)
	DD	00H
	DD	05H
xdata$x	ENDS
;	COMDAT xdata$x
xdata$x	SEGMENT
__ehfuncinfo$??0?$_Non_trivial_move_assign@U?$_Optional_construct_base@U?$pair@NN@std@@@std@@U?$pair@NN@2@@std@@QAE@XZ DD 019930522H
	DD	00H
	DD	00H
	DD	2 DUP(00H)
	DD	2 DUP(00H)
	DD	00H
	DD	05H
xdata$x	ENDS
;	COMDAT xdata$x
xdata$x	SEGMENT
__ehfuncinfo$??0?$_Non_trivial_copy_assign@U?$_Optional_construct_base@U?$pair@NN@std@@@std@@U?$pair@NN@2@@std@@QAE@XZ DD 019930522H
	DD	00H
	DD	00H
	DD	2 DUP(00H)
	DD	2 DUP(00H)
	DD	00H
	DD	05H
xdata$x	ENDS
;	COMDAT xdata$x
xdata$x	SEGMENT
__ehfuncinfo$?_Get@?$_Optional_construct_base@U?$pair@NN@std@@@std@@QGAEAAU?$pair@NN@2@XZ DD 019930522H
	DD	00H
	DD	00H
	DD	2 DUP(00H)
	DD	2 DUP(00H)
	DD	00H
	DD	05H
xdata$x	ENDS
;	COMDAT xdata$x
xdata$x	SEGMENT
__ehfuncinfo$??0?$_Optional_destruct_base@U?$pair@NN@std@@$00@std@@QAE@XZ DD 019930522H
	DD	00H
	DD	00H
	DD	2 DUP(00H)
	DD	2 DUP(00H)
	DD	00H
	DD	05H
xdata$x	ENDS
;	COMDAT xdata$x
xdata$x	SEGMENT
__ehfuncinfo$??$?4U?$pair@NN@std@@$0A@@?$pair@NN@std@@QAEAAU01@$$QAU01@@Z DD 019930522H
	DD	00H
	DD	00H
	DD	2 DUP(00H)
	DD	2 DUP(00H)
	DD	00H
	DD	05H
xdata$x	ENDS
;	COMDAT xdata$x
xdata$x	SEGMENT
__ehfuncinfo$??$?0HH$0A@@?$pair@HH@std@@QAE@ABH0@Z DD 019930522H
	DD	00H
	DD	00H
	DD	2 DUP(00H)
	DD	2 DUP(00H)
	DD	00H
	DD	05H
xdata$x	ENDS
;	COMDAT xdata$x
xdata$x	SEGMENT
__ehfuncinfo$?_Get_first@?$_Compressed_pair@V?$allocator@H@std@@V?$_Vector_val@U?$_Simple_types@H@std@@@2@$00@std@@QBEABV?$allocator@H@2@XZ DD 019930522H
	DD	00H
	DD	00H
	DD	2 DUP(00H)
	DD	2 DUP(00H)
	DD	00H
	DD	05H
xdata$x	ENDS
;	COMDAT xdata$x
xdata$x	SEGMENT
__ehfuncinfo$?_Get_first@?$_Compressed_pair@V?$allocator@H@std@@V?$_Vector_val@U?$_Simple_types@H@std@@@2@$00@std@@QAEAAV?$allocator@H@2@XZ DD 019930522H
	DD	00H
	DD	00H
	DD	2 DUP(00H)
	DD	2 DUP(00H)
	DD	00H
	DD	05H
xdata$x	ENDS
;	COMDAT xdata$x
xdata$x	SEGMENT
__ehfuncinfo$?_Getal@?$vector@HV?$allocator@H@std@@@std@@ABEABV?$allocator@H@2@XZ DD 019930522H
	DD	00H
	DD	00H
	DD	2 DUP(00H)
	DD	2 DUP(00H)
	DD	00H
	DD	05H
xdata$x	ENDS
;	COMDAT xdata$x
xdata$x	SEGMENT
__ehfuncinfo$?_Getal@?$vector@HV?$allocator@H@std@@@std@@AAEAAV?$allocator@H@2@XZ DD 019930522H
	DD	00H
	DD	00H
	DD	2 DUP(00H)
	DD	2 DUP(00H)
	DD	00H
	DD	05H
xdata$x	ENDS
;	COMDAT xdata$x
xdata$x	SEGMENT
__ehfuncinfo$?_Tidy@?$vector@HV?$allocator@H@std@@@std@@AAEXXZ DD 019930522H
	DD	00H
	DD	00H
	DD	2 DUP(00H)
	DD	2 DUP(00H)
	DD	00H
	DD	05H
xdata$x	ENDS
;	COMDAT xdata$x
xdata$x	SEGMENT
__ehfuncinfo$??A?$vector@HV?$allocator@H@std@@@std@@QBEABHI@Z DD 019930522H
	DD	00H
	DD	00H
	DD	2 DUP(00H)
	DD	2 DUP(00H)
	DD	00H
	DD	05H
xdata$x	ENDS
;	COMDAT xdata$x
xdata$x	SEGMENT
__ehfuncinfo$?max_size@?$vector@HV?$allocator@H@std@@@std@@QBEIXZ DD 019930522H
	DD	00H
	DD	00H
	DD	2 DUP(00H)
	DD	2 DUP(00H)
	DD	00H
	DD	05H
xdata$x	ENDS
;	COMDAT xdata$x
xdata$x	SEGMENT
__ehfuncinfo$?size@?$vector@HV?$allocator@H@std@@@std@@QBEIXZ DD 019930522H
	DD	00H
	DD	00H
	DD	2 DUP(00H)
	DD	2 DUP(00H)
	DD	00H
	DD	05H
xdata$x	ENDS
;	COMDAT xdata$x
xdata$x	SEGMENT
__ehfuncinfo$??1?$vector@HV?$allocator@H@std@@@std@@QAE@XZ DD 019930522H
	DD	00H
	DD	00H
	DD	2 DUP(00H)
	DD	2 DUP(00H)
	DD	00H
	DD	05H
xdata$x	ENDS
;	COMDAT xdata$x
xdata$x	SEGMENT
__unwindtable$??0?$vector@HV?$allocator@H@std@@@std@@QAE@V?$initializer_list@H@1@ABV?$allocator@H@1@@Z DD 0ffffffffH
	DD	FLAT:__unwindfunclet$??0?$vector@HV?$allocator@H@std@@@std@@QAE@V?$initializer_list@H@1@ABV?$allocator@H@1@@Z$0
__ehfuncinfo$??0?$vector@HV?$allocator@H@std@@@std@@QAE@V?$initializer_list@H@1@ABV?$allocator@H@1@@Z DD 019930522H
	DD	01H
	DD	FLAT:__unwindtable$??0?$vector@HV?$allocator@H@std@@@std@@QAE@V?$initializer_list@H@1@ABV?$allocator@H@1@@Z
	DD	2 DUP(00H)
	DD	2 DUP(00H)
	DD	00H
	DD	01H
xdata$x	ENDS
;	COMDAT xdata$x
xdata$x	SEGMENT
__ehfuncinfo$?max_size@?$_Default_allocator_traits@V?$allocator@H@std@@@std@@SAIABV?$allocator@H@2@@Z DD 019930522H
	DD	00H
	DD	00H
	DD	2 DUP(00H)
	DD	2 DUP(00H)
	DD	00H
	DD	05H
xdata$x	ENDS
;	COMDAT xdata$x
xdata$x	SEGMENT
__ehfuncinfo$??0?$allocator@H@std@@QAE@XZ DD 019930522H
	DD	00H
	DD	00H
	DD	2 DUP(00H)
	DD	2 DUP(00H)
	DD	00H
	DD	05H
xdata$x	ENDS
;	COMDAT xdata$x
xdata$x	SEGMENT
__ehfuncinfo$??$?0AANAAN$0A@@?$pair@NN@std@@QAE@AAN0@Z DD 019930522H
	DD	00H
	DD	00H
	DD	2 DUP(00H)
	DD	2 DUP(00H)
	DD	00H
	DD	05H
xdata$x	ENDS
;	COMDAT xdata$x
xdata$x	SEGMENT
__ehfuncinfo$??$_Min_value@I@std@@YAABIABI0@Z DD 019930522H
	DD	00H
	DD	00H
	DD	2 DUP(00H)
	DD	2 DUP(00H)
	DD	00H
	DD	05H
xdata$x	ENDS
;	COMDAT xdata$x
xdata$x	SEGMENT
__ehfuncinfo$?eof@?$_Narrow_char_traits@DH@std@@SAHXZ DD 019930522H
	DD	00H
	DD	00H
	DD	2 DUP(00H)
	DD	2 DUP(00H)
	DD	00H
	DD	05H
xdata$x	ENDS
;	COMDAT xdata$x
xdata$x	SEGMENT
__ehfuncinfo$?eq_int_type@?$_Narrow_char_traits@DH@std@@SA_NABH0@Z DD 019930522H
	DD	00H
	DD	00H
	DD	2 DUP(00H)
	DD	2 DUP(00H)
	DD	00H
	DD	05H
xdata$x	ENDS
;	COMDAT xdata$x
xdata$x	SEGMENT
__ehfuncinfo$?length@?$_Narrow_char_traits@DH@std@@SAIQBD@Z DD 019930522H
	DD	00H
	DD	00H
	DD	2 DUP(00H)
	DD	2 DUP(00H)
	DD	00H
	DD	05H
xdata$x	ENDS
;	COMDAT xdata$x
xdata$x	SEGMENT
__ehfuncinfo$?what@bad_optional_access@std@@UBEPBDXZ DD 019930522H
	DD	00H
	DD	00H
	DD	2 DUP(00H)
	DD	2 DUP(00H)
	DD	00H
	DD	05H
xdata$x	ENDS
;	COMDAT xdata$x
xdata$x	SEGMENT
__ehfuncinfo$??$addressof@U_Container_base12@std@@@std@@YAPAU_Container_base12@0@AAU10@@Z DD 019930522H
	DD	00H
	DD	00H
	DD	2 DUP(00H)
	DD	2 DUP(00H)
	DD	00H
	DD	05H
xdata$x	ENDS
;	COMDAT xdata$x
xdata$x	SEGMENT
__ehfuncinfo$?_Release@_Basic_container_proxy_ptr12@std@@QAEXXZ DD 019930522H
	DD	00H
	DD	00H
	DD	2 DUP(00H)
	DD	2 DUP(00H)
	DD	00H
	DD	05H
xdata$x	ENDS
;	COMDAT xdata$x
xdata$x	SEGMENT
__ehfuncinfo$??$_Construct_in_place@U_Container_proxy@std@@PAU_Container_base12@2@@std@@YAXAAU_Container_proxy@0@$$QAPAU_Container_base12@0@@Z DD 019930522H
	DD	00H
	DD	00H
	DD	2 DUP(00H)
	DD	2 DUP(00H)
	DD	00H
	DD	05H
xdata$x	ENDS
;	COMDAT xdata$x
xdata$x	SEGMENT
__ehfuncinfo$?_Orphan_all@_Container_base12@std@@QAEXXZ DD 019930522H
	DD	00H
	DD	00H
	DD	2 DUP(00H)
	DD	2 DUP(00H)
	DD	00H
	DD	05H
xdata$x	ENDS
;	COMDAT xdata$x
xdata$x	SEGMENT
__ehfuncinfo$??0_Container_proxy@std@@QAE@PAU_Container_base12@1@@Z DD 019930522H
	DD	00H
	DD	00H
	DD	2 DUP(00H)
	DD	2 DUP(00H)
	DD	00H
	DD	05H
xdata$x	ENDS
;	COMDAT xdata$x
xdata$x	SEGMENT
__ehfuncinfo$??$_Convert_size@I@std@@YAII@Z DD 019930522H
	DD	00H
	DD	00H
	DD	2 DUP(00H)
	DD	2 DUP(00H)
	DD	00H
	DD	05H
xdata$x	ENDS
;	COMDAT xdata$x
xdata$x	SEGMENT
__ehfuncinfo$?max@?$numeric_limits@H@std@@SAHXZ DD 019930522H
	DD	00H
	DD	00H
	DD	2 DUP(00H)
	DD	2 DUP(00H)
	DD	00H
	DD	05H
xdata$x	ENDS
;	COMDAT xdata$x
xdata$x	SEGMENT
__ehfuncinfo$??0bad_array_new_length@std@@QAE@XZ DD 019930522H
	DD	00H
	DD	00H
	DD	2 DUP(00H)
	DD	2 DUP(00H)
	DD	00H
	DD	05H
xdata$x	ENDS
;	COMDAT xdata$x
xdata$x	SEGMENT
__ehfuncinfo$??0bad_alloc@std@@AAE@QBD@Z DD 019930522H
	DD	00H
	DD	00H
	DD	2 DUP(00H)
	DD	2 DUP(00H)
	DD	00H
	DD	05H
xdata$x	ENDS
;	COMDAT xdata$x
xdata$x	SEGMENT
__ehfuncinfo$??1exception@std@@UAE@XZ DD 019930522H
	DD	00H
	DD	00H
	DD	2 DUP(00H)
	DD	2 DUP(00H)
	DD	00H
	DD	05H
xdata$x	ENDS
;	COMDAT xdata$x
xdata$x	SEGMENT
__ehfuncinfo$??0exception@std@@QAE@ABV01@@Z DD 019930522H
	DD	00H
	DD	00H
	DD	2 DUP(00H)
	DD	2 DUP(00H)
	DD	00H
	DD	05H
xdata$x	ENDS
;	COMDAT xdata$x
xdata$x	SEGMENT
__ehfuncinfo$??0exception@std@@QAE@QBDH@Z DD 019930522H
	DD	00H
	DD	00H
	DD	2 DUP(00H)
	DD	2 DUP(00H)
	DD	00H
	DD	05H
xdata$x	ENDS
;	COMDAT xdata$x
xdata$x	SEGMENT
__ehfuncinfo$??0exception@std@@QAE@QBD@Z DD 019930522H
	DD	00H
	DD	00H
	DD	2 DUP(00H)
	DD	2 DUP(00H)
	DD	00H
	DD	05H
xdata$x	ENDS
;	COMDAT xdata$x
xdata$x	SEGMENT
__ehfuncinfo$??0exception@std@@QAE@XZ DD 019930522H
	DD	00H
	DD	00H
	DD	2 DUP(00H)
	DD	2 DUP(00H)
	DD	00H
	DD	05H
xdata$x	ENDS
;	COMDAT xdata$x
xdata$x	SEGMENT
__ehfuncinfo$??2@YAPAXIPAX@Z DD 019930522H
	DD	00H
	DD	00H
	DD	2 DUP(00H)
	DD	2 DUP(00H)
	DD	00H
	DD	05H
xdata$x	ENDS
;	COMDAT xdata$x
xdata$x	SEGMENT
__ehfuncinfo$?__empty_global_delete@@YAXPAXIW4align_val_t@std@@@Z DD 019930522H
	DD	00H
	DD	00H
	DD	2 DUP(00H)
	DD	2 DUP(00H)
	DD	00H
	DD	05H
xdata$x	ENDS
;	COMDAT xdata$x
xdata$x	SEGMENT
__ehfuncinfo$?__empty_global_delete@@YAXPAXW4align_val_t@std@@@Z DD 019930522H
	DD	00H
	DD	00H
	DD	2 DUP(00H)
	DD	2 DUP(00H)
	DD	00H
	DD	05H
xdata$x	ENDS
;	COMDAT xdata$x
xdata$x	SEGMENT
__ehfuncinfo$?__empty_global_delete@@YAXPAXI@Z DD 019930522H
	DD	00H
	DD	00H
	DD	2 DUP(00H)
	DD	2 DUP(00H)
	DD	00H
	DD	05H
xdata$x	ENDS
;	COMDAT xdata$x
xdata$x	SEGMENT
__ehfuncinfo$?__empty_global_delete@@YAXPAX@Z DD 019930522H
	DD	00H
	DD	00H
	DD	2 DUP(00H)
	DD	2 DUP(00H)
	DD	00H
	DD	05H
xdata$x	ENDS
; Function compile flags: /Odt
;	COMDAT __JustMyCode_Default
_TEXT	SEGMENT
__JustMyCode_Default PROC				; COMDAT
	push	ebp
	mov	ebp, esp
	pop	ebp
	ret	0
__JustMyCode_Default ENDP
_TEXT	ENDS
; Function compile flags: /Odtp /RTCsu /ZI
;	COMDAT ??$addressof@U?$pair@HH@std@@@std@@YAPAU?$pair@HH@0@AAU10@@Z
_TEXT	SEGMENT
__$EHRec$ = -12						; size = 12
__Val$ = 8						; size = 4
??$addressof@U?$pair@HH@std@@@std@@YAPAU?$pair@HH@0@AAU10@@Z PROC ; std::addressof<std::pair<int,int> >, COMDAT
; File C:\Program Files (x86)\Microsoft Visual Studio\2019\Community\VC\Tools\MSVC\14.23.28105\include\xstddef
; Line 279
	push	ebp
	mov	ebp, esp
	push	-1
	push	__ehhandler$??$addressof@U?$pair@HH@std@@@std@@YAPAU?$pair@HH@0@AAU10@@Z
	mov	eax, DWORD PTR fs:0
	push	eax
	sub	esp, 192				; 000000c0H
	push	ebx
	push	esi
	push	edi
	lea	edi, DWORD PTR [ebp-204]
	mov	ecx, 48					; 00000030H
	mov	eax, -858993460				; ccccccccH
	rep stosd
	mov	eax, DWORD PTR ___security_cookie
	xor	eax, ebp
	push	eax
	lea	eax, DWORD PTR __$EHRec$[ebp]
	mov	DWORD PTR fs:0, eax
	mov	ecx, OFFSET __46C44D95_xstddef
	call	@__CheckForDebuggerJustMyCode@4
; Line 280
	mov	eax, DWORD PTR __Val$[ebp]
; Line 281
	mov	ecx, DWORD PTR __$EHRec$[ebp]
	mov	DWORD PTR fs:0, ecx
	pop	ecx
	pop	edi
	pop	esi
	pop	ebx
	add	esp, 204				; 000000ccH
	cmp	ebp, esp
	call	__RTC_CheckEsp
	mov	esp, ebp
	pop	ebp
	ret	0
_TEXT	ENDS
;	COMDAT text$x
text$x	SEGMENT
__ehhandler$??$addressof@U?$pair@HH@std@@@std@@YAPAU?$pair@HH@0@AAU10@@Z:
	mov	edx, DWORD PTR [esp+8]
	lea	eax, DWORD PTR [edx+12]
	mov	ecx, DWORD PTR [edx-208]
	xor	ecx, eax
	call	@__security_check_cookie@4
	mov	eax, OFFSET __ehfuncinfo$??$addressof@U?$pair@HH@std@@@std@@YAPAU?$pair@HH@0@AAU10@@Z
	jmp	___CxxFrameHandler3
text$x	ENDS
??$addressof@U?$pair@HH@std@@@std@@YAPAU?$pair@HH@0@AAU10@@Z ENDP ; std::addressof<std::pair<int,int> >
; Function compile flags: /Odtp /RTCsu /ZI
;	COMDAT ??$addressof@U?$pair@NN@std@@@std@@YAPAU?$pair@NN@0@AAU10@@Z
_TEXT	SEGMENT
__$EHRec$ = -12						; size = 12
__Val$ = 8						; size = 4
??$addressof@U?$pair@NN@std@@@std@@YAPAU?$pair@NN@0@AAU10@@Z PROC ; std::addressof<std::pair<double,double> >, COMDAT
; File C:\Program Files (x86)\Microsoft Visual Studio\2019\Community\VC\Tools\MSVC\14.23.28105\include\xstddef
; Line 279
	push	ebp
	mov	ebp, esp
	push	-1
	push	__ehhandler$??$addressof@U?$pair@NN@std@@@std@@YAPAU?$pair@NN@0@AAU10@@Z
	mov	eax, DWORD PTR fs:0
	push	eax
	sub	esp, 192				; 000000c0H
	push	ebx
	push	esi
	push	edi
	lea	edi, DWORD PTR [ebp-204]
	mov	ecx, 48					; 00000030H
	mov	eax, -858993460				; ccccccccH
	rep stosd
	mov	eax, DWORD PTR ___security_cookie
	xor	eax, ebp
	push	eax
	lea	eax, DWORD PTR __$EHRec$[ebp]
	mov	DWORD PTR fs:0, eax
	mov	ecx, OFFSET __46C44D95_xstddef
	call	@__CheckForDebuggerJustMyCode@4
; Line 280
	mov	eax, DWORD PTR __Val$[ebp]
; Line 281
	mov	ecx, DWORD PTR __$EHRec$[ebp]
	mov	DWORD PTR fs:0, ecx
	pop	ecx
	pop	edi
	pop	esi
	pop	ebx
	add	esp, 204				; 000000ccH
	cmp	ebp, esp
	call	__RTC_CheckEsp
	mov	esp, ebp
	pop	ebp
	ret	0
_TEXT	ENDS
;	COMDAT text$x
text$x	SEGMENT
__ehhandler$??$addressof@U?$pair@NN@std@@@std@@YAPAU?$pair@NN@0@AAU10@@Z:
	mov	edx, DWORD PTR [esp+8]
	lea	eax, DWORD PTR [edx+12]
	mov	ecx, DWORD PTR [edx-208]
	xor	ecx, eax
	call	@__security_check_cookie@4
	mov	eax, OFFSET __ehfuncinfo$??$addressof@U?$pair@NN@std@@@std@@YAPAU?$pair@NN@0@AAU10@@Z
	jmp	___CxxFrameHandler3
text$x	ENDS
??$addressof@U?$pair@NN@std@@@std@@YAPAU?$pair@NN@0@AAU10@@Z ENDP ; std::addressof<std::pair<double,double> >
; Function compile flags: /Odtp /RTCsu /ZI
;	COMDAT ??$_Copy_memmove@PBHPAH@std@@YAPAHPBH0PAH@Z
_TEXT	SEGMENT
__Count$ = -44						; size = 4
__Dest_ch$ = -32					; size = 4
__Last_ch$ = -20					; size = 4
__First_ch$ = -8					; size = 4
__First$ = 8						; size = 4
__Last$ = 12						; size = 4
__Dest$ = 16						; size = 4
??$_Copy_memmove@PBHPAH@std@@YAPAHPBH0PAH@Z PROC	; std::_Copy_memmove<int const *,int *>, COMDAT
; File C:\Program Files (x86)\Microsoft Visual Studio\2019\Community\VC\Tools\MSVC\14.23.28105\include\xutility
; Line 1739
	push	ebp
	mov	ebp, esp
	sub	esp, 240				; 000000f0H
	push	ebx
	push	esi
	push	edi
	lea	edi, DWORD PTR [ebp-240]
	mov	ecx, 60					; 0000003cH
	mov	eax, -858993460				; ccccccccH
	rep stosd
	mov	ecx, OFFSET __86E03ACD_xutility
	call	@__CheckForDebuggerJustMyCode@4
; Line 1740
	mov	eax, DWORD PTR __First$[ebp]
	mov	DWORD PTR __First_ch$[ebp], eax
; Line 1741
	mov	eax, DWORD PTR __Last$[ebp]
	mov	DWORD PTR __Last_ch$[ebp], eax
; Line 1742
	mov	eax, DWORD PTR __Dest$[ebp]
	mov	DWORD PTR __Dest_ch$[ebp], eax
; Line 1743
	mov	eax, DWORD PTR __Last_ch$[ebp]
	sub	eax, DWORD PTR __First_ch$[ebp]
	mov	DWORD PTR __Count$[ebp], eax
; Line 1744
	mov	eax, DWORD PTR __Count$[ebp]
	push	eax
	mov	ecx, DWORD PTR __First_ch$[ebp]
	push	ecx
	mov	edx, DWORD PTR __Dest_ch$[ebp]
	push	edx
	call	_memmove
	add	esp, 12					; 0000000cH
; Line 1745
	mov	eax, DWORD PTR __Dest_ch$[ebp]
	add	eax, DWORD PTR __Count$[ebp]
; Line 1746
	pop	edi
	pop	esi
	pop	ebx
	add	esp, 240				; 000000f0H
	cmp	ebp, esp
	call	__RTC_CheckEsp
	mov	esp, ebp
	pop	ebp
	ret	0
??$_Copy_memmove@PBHPAH@std@@YAPAHPBH0PAH@Z ENDP	; std::_Copy_memmove<int const *,int *>
_TEXT	ENDS
; Function compile flags: /Odtp /RTCsu /ZI
;	COMDAT ??$_Unfancy@H@std@@YAPAHPAH@Z
_TEXT	SEGMENT
__Ptr$ = 8						; size = 4
??$_Unfancy@H@std@@YAPAHPAH@Z PROC			; std::_Unfancy<int>, COMDAT
; File C:\Program Files (x86)\Microsoft Visual Studio\2019\Community\VC\Tools\MSVC\14.23.28105\include\xstddef
; Line 293
	push	ebp
	mov	ebp, esp
	sub	esp, 192				; 000000c0H
	push	ebx
	push	esi
	push	edi
	lea	edi, DWORD PTR [ebp-192]
	mov	ecx, 48					; 00000030H
	mov	eax, -858993460				; ccccccccH
	rep stosd
	mov	ecx, OFFSET __46C44D95_xstddef
	call	@__CheckForDebuggerJustMyCode@4
; Line 294
	mov	eax, DWORD PTR __Ptr$[ebp]
; Line 295
	pop	edi
	pop	esi
	pop	ebx
	add	esp, 192				; 000000c0H
	cmp	ebp, esp
	call	__RTC_CheckEsp
	mov	esp, ebp
	pop	ebp
	ret	0
??$_Unfancy@H@std@@YAPAHPAH@Z ENDP			; std::_Unfancy<int>
_TEXT	ENDS
; Function compile flags: /Odtp /RTCsu /ZI
;	COMDAT ??$_Get_unwrapped@$$CBH@std@@YAPBHQBH@Z
_TEXT	SEGMENT
__Ptr$ = 8						; size = 4
??$_Get_unwrapped@$$CBH@std@@YAPBHQBH@Z PROC		; std::_Get_unwrapped<int const >, COMDAT
; File C:\Program Files (x86)\Microsoft Visual Studio\2019\Community\VC\Tools\MSVC\14.23.28105\include\xutility
; Line 275
	push	ebp
	mov	ebp, esp
	sub	esp, 192				; 000000c0H
	push	ebx
	push	esi
	push	edi
	lea	edi, DWORD PTR [ebp-192]
	mov	ecx, 48					; 00000030H
	mov	eax, -858993460				; ccccccccH
	rep stosd
	mov	ecx, OFFSET __86E03ACD_xutility
	call	@__CheckForDebuggerJustMyCode@4
; Line 276
	mov	eax, DWORD PTR __Ptr$[ebp]
; Line 277
	pop	edi
	pop	esi
	pop	ebx
	add	esp, 192				; 000000c0H
	cmp	ebp, esp
	call	__RTC_CheckEsp
	mov	esp, ebp
	pop	ebp
	ret	0
??$_Get_unwrapped@$$CBH@std@@YAPBHQBH@Z ENDP		; std::_Get_unwrapped<int const >
_TEXT	ENDS
; Function compile flags: /Odtp /RTCsu /ZI
;	COMDAT ??$_Construct_in_place@U?$pair@HH@std@@U12@@std@@YAXAAU?$pair@HH@0@$$QAU10@@Z
_TEXT	SEGMENT
$T2 = -212						; size = 4
__$EHRec$ = -12						; size = 12
__Obj$ = 8						; size = 4
_<_Args_0>$ = 12					; size = 4
??$_Construct_in_place@U?$pair@HH@std@@U12@@std@@YAXAAU?$pair@HH@0@$$QAU10@@Z PROC ; std::_Construct_in_place<std::pair<int,int>,std::pair<int,int> >, COMDAT
; File C:\Program Files (x86)\Microsoft Visual Studio\2019\Community\VC\Tools\MSVC\14.23.28105\include\xmemory
; Line 198
	push	ebp
	mov	ebp, esp
	push	-1
	push	__ehhandler$??$_Construct_in_place@U?$pair@HH@std@@U12@@std@@YAXAAU?$pair@HH@0@$$QAU10@@Z
	mov	eax, DWORD PTR fs:0
	push	eax
	sub	esp, 204				; 000000ccH
	push	ebx
	push	esi
	push	edi
	lea	edi, DWORD PTR [ebp-216]
	mov	ecx, 51					; 00000033H
	mov	eax, -858993460				; ccccccccH
	rep stosd
	mov	eax, DWORD PTR ___security_cookie
	xor	eax, ebp
	push	eax
	lea	eax, DWORD PTR __$EHRec$[ebp]
	mov	DWORD PTR fs:0, eax
	mov	ecx, OFFSET __DB4EB944_xmemory
	call	@__CheckForDebuggerJustMyCode@4
	mov	eax, DWORD PTR __Obj$[ebp]
	push	eax
	call	??$addressof@U?$pair@HH@std@@@std@@YAPAU?$pair@HH@0@AAU10@@Z ; std::addressof<std::pair<int,int> >
	add	esp, 4
	push	eax
	push	8
	call	??2@YAPAXIPAX@Z				; operator new
	add	esp, 8
	mov	DWORD PTR $T2[ebp], eax
	mov	ecx, DWORD PTR _<_Args_0>$[ebp]
	push	ecx
	call	??$forward@U?$pair@HH@std@@@std@@YA$$QAU?$pair@HH@0@AAU10@@Z ; std::forward<std::pair<int,int> >
	add	esp, 4
	mov	edx, DWORD PTR [eax]
	mov	eax, DWORD PTR [eax+4]
	mov	ecx, DWORD PTR $T2[ebp]
	mov	DWORD PTR [ecx], edx
	mov	DWORD PTR [ecx+4], eax
; Line 201
	mov	ecx, DWORD PTR __$EHRec$[ebp]
	mov	DWORD PTR fs:0, ecx
	pop	ecx
	pop	edi
	pop	esi
	pop	ebx
	add	esp, 216				; 000000d8H
	cmp	ebp, esp
	call	__RTC_CheckEsp
	mov	esp, ebp
	pop	ebp
	ret	0
_TEXT	ENDS
;	COMDAT text$x
text$x	SEGMENT
__ehhandler$??$_Construct_in_place@U?$pair@HH@std@@U12@@std@@YAXAAU?$pair@HH@0@$$QAU10@@Z:
	mov	edx, DWORD PTR [esp+8]
	lea	eax, DWORD PTR [edx+12]
	mov	ecx, DWORD PTR [edx-220]
	xor	ecx, eax
	call	@__security_check_cookie@4
	mov	eax, OFFSET __ehfuncinfo$??$_Construct_in_place@U?$pair@HH@std@@U12@@std@@YAXAAU?$pair@HH@0@$$QAU10@@Z
	jmp	___CxxFrameHandler3
text$x	ENDS
??$_Construct_in_place@U?$pair@HH@std@@U12@@std@@YAXAAU?$pair@HH@0@$$QAU10@@Z ENDP ; std::_Construct_in_place<std::pair<int,int>,std::pair<int,int> >
; Function compile flags: /Odtp /RTCsu /ZI
;	COMDAT ??$_Construct_in_place@U?$pair@NN@std@@U12@@std@@YAXAAU?$pair@NN@0@$$QAU10@@Z
_TEXT	SEGMENT
$T2 = -212						; size = 4
__$EHRec$ = -12						; size = 12
__Obj$ = 8						; size = 4
_<_Args_0>$ = 12					; size = 4
??$_Construct_in_place@U?$pair@NN@std@@U12@@std@@YAXAAU?$pair@NN@0@$$QAU10@@Z PROC ; std::_Construct_in_place<std::pair<double,double>,std::pair<double,double> >, COMDAT
; File C:\Program Files (x86)\Microsoft Visual Studio\2019\Community\VC\Tools\MSVC\14.23.28105\include\xmemory
; Line 198
	push	ebp
	mov	ebp, esp
	push	-1
	push	__ehhandler$??$_Construct_in_place@U?$pair@NN@std@@U12@@std@@YAXAAU?$pair@NN@0@$$QAU10@@Z
	mov	eax, DWORD PTR fs:0
	push	eax
	sub	esp, 204				; 000000ccH
	push	ebx
	push	esi
	push	edi
	lea	edi, DWORD PTR [ebp-216]
	mov	ecx, 51					; 00000033H
	mov	eax, -858993460				; ccccccccH
	rep stosd
	mov	eax, DWORD PTR ___security_cookie
	xor	eax, ebp
	push	eax
	lea	eax, DWORD PTR __$EHRec$[ebp]
	mov	DWORD PTR fs:0, eax
	mov	ecx, OFFSET __DB4EB944_xmemory
	call	@__CheckForDebuggerJustMyCode@4
	mov	eax, DWORD PTR __Obj$[ebp]
	push	eax
	call	??$addressof@U?$pair@NN@std@@@std@@YAPAU?$pair@NN@0@AAU10@@Z ; std::addressof<std::pair<double,double> >
	add	esp, 4
	push	eax
	push	16					; 00000010H
	call	??2@YAPAXIPAX@Z				; operator new
	add	esp, 8
	mov	DWORD PTR $T2[ebp], eax
	mov	ecx, DWORD PTR _<_Args_0>$[ebp]
	push	ecx
	call	??$forward@U?$pair@NN@std@@@std@@YA$$QAU?$pair@NN@0@AAU10@@Z ; std::forward<std::pair<double,double> >
	add	esp, 4
	mov	edx, DWORD PTR $T2[ebp]
	mov	ecx, DWORD PTR [eax]
	mov	DWORD PTR [edx], ecx
	mov	ecx, DWORD PTR [eax+4]
	mov	DWORD PTR [edx+4], ecx
	mov	ecx, DWORD PTR [eax+8]
	mov	DWORD PTR [edx+8], ecx
	mov	eax, DWORD PTR [eax+12]
	mov	DWORD PTR [edx+12], eax
; Line 201
	mov	ecx, DWORD PTR __$EHRec$[ebp]
	mov	DWORD PTR fs:0, ecx
	pop	ecx
	pop	edi
	pop	esi
	pop	ebx
	add	esp, 216				; 000000d8H
	cmp	ebp, esp
	call	__RTC_CheckEsp
	mov	esp, ebp
	pop	ebp
	ret	0
_TEXT	ENDS
;	COMDAT text$x
text$x	SEGMENT
__ehhandler$??$_Construct_in_place@U?$pair@NN@std@@U12@@std@@YAXAAU?$pair@NN@0@$$QAU10@@Z:
	mov	edx, DWORD PTR [esp+8]
	lea	eax, DWORD PTR [edx+12]
	mov	ecx, DWORD PTR [edx-220]
	xor	ecx, eax
	call	@__security_check_cookie@4
	mov	eax, OFFSET __ehfuncinfo$??$_Construct_in_place@U?$pair@NN@std@@U12@@std@@YAXAAU?$pair@NN@0@$$QAU10@@Z
	jmp	___CxxFrameHandler3
text$x	ENDS
??$_Construct_in_place@U?$pair@NN@std@@U12@@std@@YAXAAU?$pair@NN@0@$$QAU10@@Z ENDP ; std::_Construct_in_place<std::pair<double,double>,std::pair<double,double> >
; Function compile flags: /Odtp /RTCsu /ZI
;	COMDAT ??$forward@H@std@@YA$$QAHAAH@Z
_TEXT	SEGMENT
__$EHRec$ = -12						; size = 12
__Arg$ = 8						; size = 4
??$forward@H@std@@YA$$QAHAAH@Z PROC			; std::forward<int>, COMDAT
; File C:\Program Files (x86)\Microsoft Visual Studio\2019\Community\VC\Tools\MSVC\14.23.28105\include\type_traits
; Line 1420
	push	ebp
	mov	ebp, esp
	push	-1
	push	__ehhandler$??$forward@H@std@@YA$$QAHAAH@Z
	mov	eax, DWORD PTR fs:0
	push	eax
	sub	esp, 192				; 000000c0H
	push	ebx
	push	esi
	push	edi
	lea	edi, DWORD PTR [ebp-204]
	mov	ecx, 48					; 00000030H
	mov	eax, -858993460				; ccccccccH
	rep stosd
	mov	eax, DWORD PTR ___security_cookie
	xor	eax, ebp
	push	eax
	lea	eax, DWORD PTR __$EHRec$[ebp]
	mov	DWORD PTR fs:0, eax
	mov	ecx, OFFSET __FFC6471F_type_traits
	call	@__CheckForDebuggerJustMyCode@4
; Line 1421
	mov	eax, DWORD PTR __Arg$[ebp]
; Line 1422
	mov	ecx, DWORD PTR __$EHRec$[ebp]
	mov	DWORD PTR fs:0, ecx
	pop	ecx
	pop	edi
	pop	esi
	pop	ebx
	add	esp, 204				; 000000ccH
	cmp	ebp, esp
	call	__RTC_CheckEsp
	mov	esp, ebp
	pop	ebp
	ret	0
_TEXT	ENDS
;	COMDAT text$x
text$x	SEGMENT
__ehhandler$??$forward@H@std@@YA$$QAHAAH@Z:
	mov	edx, DWORD PTR [esp+8]
	lea	eax, DWORD PTR [edx+12]
	mov	ecx, DWORD PTR [edx-208]
	xor	ecx, eax
	call	@__security_check_cookie@4
	mov	eax, OFFSET __ehfuncinfo$??$forward@H@std@@YA$$QAHAAH@Z
	jmp	___CxxFrameHandler3
text$x	ENDS
??$forward@H@std@@YA$$QAHAAH@Z ENDP			; std::forward<int>
; Function compile flags: /Odtp /RTCsu /ZI
;	COMDAT ??$forward@N@std@@YA$$QANAAN@Z
_TEXT	SEGMENT
__$EHRec$ = -12						; size = 12
__Arg$ = 8						; size = 4
??$forward@N@std@@YA$$QANAAN@Z PROC			; std::forward<double>, COMDAT
; File C:\Program Files (x86)\Microsoft Visual Studio\2019\Community\VC\Tools\MSVC\14.23.28105\include\type_traits
; Line 1420
	push	ebp
	mov	ebp, esp
	push	-1
	push	__ehhandler$??$forward@N@std@@YA$$QANAAN@Z
	mov	eax, DWORD PTR fs:0
	push	eax
	sub	esp, 192				; 000000c0H
	push	ebx
	push	esi
	push	edi
	lea	edi, DWORD PTR [ebp-204]
	mov	ecx, 48					; 00000030H
	mov	eax, -858993460				; ccccccccH
	rep stosd
	mov	eax, DWORD PTR ___security_cookie
	xor	eax, ebp
	push	eax
	lea	eax, DWORD PTR __$EHRec$[ebp]
	mov	DWORD PTR fs:0, eax
	mov	ecx, OFFSET __FFC6471F_type_traits
	call	@__CheckForDebuggerJustMyCode@4
; Line 1421
	mov	eax, DWORD PTR __Arg$[ebp]
; Line 1422
	mov	ecx, DWORD PTR __$EHRec$[ebp]
	mov	DWORD PTR fs:0, ecx
	pop	ecx
	pop	edi
	pop	esi
	pop	ebx
	add	esp, 204				; 000000ccH
	cmp	ebp, esp
	call	__RTC_CheckEsp
	mov	esp, ebp
	pop	ebp
	ret	0
_TEXT	ENDS
;	COMDAT text$x
text$x	SEGMENT
__ehhandler$??$forward@N@std@@YA$$QANAAN@Z:
	mov	edx, DWORD PTR [esp+8]
	lea	eax, DWORD PTR [edx+12]
	mov	ecx, DWORD PTR [edx-208]
	xor	ecx, eax
	call	@__security_check_cookie@4
	mov	eax, OFFSET __ehfuncinfo$??$forward@N@std@@YA$$QANAAN@Z
	jmp	___CxxFrameHandler3
text$x	ENDS
??$forward@N@std@@YA$$QANAAN@Z ENDP			; std::forward<double>
; Function compile flags: /Odtp /RTCsu /ZI
;	COMDAT ??$_Uninitialized_copy@PBHV?$allocator@H@std@@@std@@YAPAHQBH0PAHAAV?$allocator@H@0@@Z
_TEXT	SEGMENT
__ULast$ = -20						; size = 4
__UFirst$ = -8						; size = 4
__First$ = 8						; size = 4
__Last$ = 12						; size = 4
__Dest$ = 16						; size = 4
__Al$ = 20						; size = 4
??$_Uninitialized_copy@PBHV?$allocator@H@std@@@std@@YAPAHQBH0PAHAAV?$allocator@H@0@@Z PROC ; std::_Uninitialized_copy<int const *,std::allocator<int> >, COMDAT
; File C:\Program Files (x86)\Microsoft Visual Studio\2019\Community\VC\Tools\MSVC\14.23.28105\include\xmemory
; Line 1600
	push	ebp
	mov	ebp, esp
	sub	esp, 216				; 000000d8H
	push	ebx
	push	esi
	push	edi
	lea	edi, DWORD PTR [ebp-216]
	mov	ecx, 54					; 00000036H
	mov	eax, -858993460				; ccccccccH
	rep stosd
	mov	ecx, OFFSET __DB4EB944_xmemory
	call	@__CheckForDebuggerJustMyCode@4
; Line 1605
	mov	eax, DWORD PTR __First$[ebp]
	push	eax
	call	??$_Get_unwrapped@$$CBH@std@@YAPBHQBH@Z	; std::_Get_unwrapped<int const >
	add	esp, 4
	mov	DWORD PTR __UFirst$[ebp], eax
; Line 1606
	mov	eax, DWORD PTR __Last$[ebp]
	push	eax
	call	??$_Get_unwrapped@$$CBH@std@@YAPBHQBH@Z	; std::_Get_unwrapped<int const >
	add	esp, 4
	mov	DWORD PTR __ULast$[ebp], eax
; Line 1610
	mov	eax, DWORD PTR __Dest$[ebp]
	push	eax
	call	??$_Unfancy@H@std@@YAPAHPAH@Z		; std::_Unfancy<int>
	add	esp, 4
	push	eax
	mov	ecx, DWORD PTR __ULast$[ebp]
	push	ecx
	mov	edx, DWORD PTR __UFirst$[ebp]
	push	edx
	call	??$_Copy_memmove@PBHPAH@std@@YAPAHPBH0PAH@Z ; std::_Copy_memmove<int const *,int *>
	add	esp, 12					; 0000000cH
; Line 1611
	mov	eax, DWORD PTR __ULast$[ebp]
	sub	eax, DWORD PTR __UFirst$[ebp]
	sar	eax, 2
	mov	ecx, DWORD PTR __Dest$[ebp]
	lea	edx, DWORD PTR [ecx+eax*4]
	mov	DWORD PTR __Dest$[ebp], edx
; Line 1622
	mov	eax, DWORD PTR __Dest$[ebp]
; Line 1623
	pop	edi
	pop	esi
	pop	ebx
	add	esp, 216				; 000000d8H
	cmp	ebp, esp
	call	__RTC_CheckEsp
	mov	esp, ebp
	pop	ebp
	ret	0
??$_Uninitialized_copy@PBHV?$allocator@H@std@@@std@@YAPAHQBH0PAHAAV?$allocator@H@0@@Z ENDP ; std::_Uninitialized_copy<int const *,std::allocator<int> >
_TEXT	ENDS
; Function compile flags: /Odtp /RTCsu /ZI
;	COMDAT ?deallocate@?$_Default_allocator_traits@V?$allocator@U_Container_proxy@std@@@std@@@std@@SAXAAV?$allocator@U_Container_proxy@std@@@2@QAU_Container_proxy@2@I@Z
_TEXT	SEGMENT
___formal$ = 8						; size = 4
__Ptr$ = 12						; size = 4
__Count$ = 16						; size = 4
?deallocate@?$_Default_allocator_traits@V?$allocator@U_Container_proxy@std@@@std@@@std@@SAXAAV?$allocator@U_Container_proxy@std@@@2@QAU_Container_proxy@2@I@Z PROC ; std::_Default_allocator_traits<std::allocator<std::_Container_proxy> >::deallocate, COMDAT
; File C:\Program Files (x86)\Microsoft Visual Studio\2019\Community\VC\Tools\MSVC\14.23.28105\include\xmemory
; Line 751
	push	ebp
	mov	ebp, esp
	sub	esp, 192				; 000000c0H
	push	ebx
	push	esi
	push	edi
	lea	edi, DWORD PTR [ebp-192]
	mov	ecx, 48					; 00000030H
	mov	eax, -858993460				; ccccccccH
	rep stosd
	mov	ecx, OFFSET __DB4EB944_xmemory
	call	@__CheckForDebuggerJustMyCode@4
; Line 753
	mov	eax, DWORD PTR __Count$[ebp]
	shl	eax, 3
	push	eax
	mov	ecx, DWORD PTR __Ptr$[ebp]
	push	ecx
	call	??$_Deallocate@$07$0A@@std@@YAXPAXI@Z	; std::_Deallocate<8,0>
	add	esp, 8
; Line 754
	pop	edi
	pop	esi
	pop	ebx
	add	esp, 192				; 000000c0H
	cmp	ebp, esp
	call	__RTC_CheckEsp
	mov	esp, ebp
	pop	ebp
	ret	0
?deallocate@?$_Default_allocator_traits@V?$allocator@U_Container_proxy@std@@@std@@@std@@SAXAAV?$allocator@U_Container_proxy@std@@@2@QAU_Container_proxy@2@I@Z ENDP ; std::_Default_allocator_traits<std::allocator<std::_Container_proxy> >::deallocate
_TEXT	ENDS
; Function compile flags: /Odtp /RTCsu /ZI
;	COMDAT ??$_Construct@U?$pair@HH@std@@@?$_Optional_construct_base@U?$pair@HH@std@@@std@@QAEAAU?$pair@HH@1@$$QAU21@@Z
_TEXT	SEGMENT
_this$ = -8						; size = 4
_<_Args_0>$ = 8						; size = 4
??$_Construct@U?$pair@HH@std@@@?$_Optional_construct_base@U?$pair@HH@std@@@std@@QAEAAU?$pair@HH@1@$$QAU21@@Z PROC ; std::_Optional_construct_base<std::pair<int,int> >::_Construct<std::pair<int,int> >, COMDAT
; _this$ = ecx
; File C:\Program Files (x86)\Microsoft Visual Studio\2019\Community\VC\Tools\MSVC\14.23.28105\include\optional
; Line 114
	push	ebp
	mov	ebp, esp
	sub	esp, 204				; 000000ccH
	push	ebx
	push	esi
	push	edi
	push	ecx
	lea	edi, DWORD PTR [ebp-204]
	mov	ecx, 51					; 00000033H
	mov	eax, -858993460				; ccccccccH
	rep stosd
	pop	ecx
	mov	DWORD PTR _this$[ebp], ecx
	mov	ecx, OFFSET __EF3496CC_optional
	call	@__CheckForDebuggerJustMyCode@4
; Line 116
	mov	eax, DWORD PTR _<_Args_0>$[ebp]
	push	eax
	call	??$forward@U?$pair@HH@std@@@std@@YA$$QAU?$pair@HH@0@AAU10@@Z ; std::forward<std::pair<int,int> >
	add	esp, 4
	push	eax
	mov	ecx, DWORD PTR _this$[ebp]
	push	ecx
	call	??$_Construct_in_place@U?$pair@HH@std@@U12@@std@@YAXAAU?$pair@HH@0@$$QAU10@@Z ; std::_Construct_in_place<std::pair<int,int>,std::pair<int,int> >
	add	esp, 8
; Line 117
	mov	eax, DWORD PTR _this$[ebp]
	mov	BYTE PTR [eax+8], 1
; Line 118
	mov	eax, DWORD PTR _this$[ebp]
; Line 119
	pop	edi
	pop	esi
	pop	ebx
	add	esp, 204				; 000000ccH
	cmp	ebp, esp
	call	__RTC_CheckEsp
	mov	esp, ebp
	pop	ebp
	ret	4
??$_Construct@U?$pair@HH@std@@@?$_Optional_construct_base@U?$pair@HH@std@@@std@@QAEAAU?$pair@HH@1@$$QAU21@@Z ENDP ; std::_Optional_construct_base<std::pair<int,int> >::_Construct<std::pair<int,int> >
_TEXT	ENDS
; Function compile flags: /Odtp /RTCsu /ZI
;	COMDAT ??$_Construct@U?$pair@NN@std@@@?$_Optional_construct_base@U?$pair@NN@std@@@std@@QAEAAU?$pair@NN@1@$$QAU21@@Z
_TEXT	SEGMENT
_this$ = -8						; size = 4
_<_Args_0>$ = 8						; size = 4
??$_Construct@U?$pair@NN@std@@@?$_Optional_construct_base@U?$pair@NN@std@@@std@@QAEAAU?$pair@NN@1@$$QAU21@@Z PROC ; std::_Optional_construct_base<std::pair<double,double> >::_Construct<std::pair<double,double> >, COMDAT
; _this$ = ecx
; File C:\Program Files (x86)\Microsoft Visual Studio\2019\Community\VC\Tools\MSVC\14.23.28105\include\optional
; Line 114
	push	ebp
	mov	ebp, esp
	sub	esp, 204				; 000000ccH
	push	ebx
	push	esi
	push	edi
	push	ecx
	lea	edi, DWORD PTR [ebp-204]
	mov	ecx, 51					; 00000033H
	mov	eax, -858993460				; ccccccccH
	rep stosd
	pop	ecx
	mov	DWORD PTR _this$[ebp], ecx
	mov	ecx, OFFSET __EF3496CC_optional
	call	@__CheckForDebuggerJustMyCode@4
; Line 116
	mov	eax, DWORD PTR _<_Args_0>$[ebp]
	push	eax
	call	??$forward@U?$pair@NN@std@@@std@@YA$$QAU?$pair@NN@0@AAU10@@Z ; std::forward<std::pair<double,double> >
	add	esp, 4
	push	eax
	mov	ecx, DWORD PTR _this$[ebp]
	push	ecx
	call	??$_Construct_in_place@U?$pair@NN@std@@U12@@std@@YAXAAU?$pair@NN@0@$$QAU10@@Z ; std::_Construct_in_place<std::pair<double,double>,std::pair<double,double> >
	add	esp, 8
; Line 117
	mov	eax, DWORD PTR _this$[ebp]
	mov	BYTE PTR [eax+16], 1
; Line 118
	mov	eax, DWORD PTR _this$[ebp]
; Line 119
	pop	edi
	pop	esi
	pop	ebx
	add	esp, 204				; 000000ccH
	cmp	ebp, esp
	call	__RTC_CheckEsp
	mov	esp, ebp
	pop	ebp
	ret	4
??$_Construct@U?$pair@NN@std@@@?$_Optional_construct_base@U?$pair@NN@std@@@std@@QAEAAU?$pair@NN@1@$$QAU21@@Z ENDP ; std::_Optional_construct_base<std::pair<double,double> >::_Construct<std::pair<double,double> >
_TEXT	ENDS
; Function compile flags: /Odtp /RTCsu /ZI
;	COMDAT ??$_Pair_get@AAHU?$pair@HH@std@@@std@@YAAAHAAU?$pair@HH@0@U?$integral_constant@I$0A@@0@@Z
_TEXT	SEGMENT
__$EHRec$ = -12						; size = 12
__Pr$ = 8						; size = 4
___formal$ = 12						; size = 1
??$_Pair_get@AAHU?$pair@HH@std@@@std@@YAAAHAAU?$pair@HH@0@U?$integral_constant@I$0A@@0@@Z PROC ; std::_Pair_get<int &,std::pair<int,int> >, COMDAT
; File C:\Program Files (x86)\Microsoft Visual Studio\2019\Community\VC\Tools\MSVC\14.23.28105\include\utility
; Line 443
	push	ebp
	mov	ebp, esp
	push	-1
	push	__ehhandler$??$_Pair_get@AAHU?$pair@HH@std@@@std@@YAAAHAAU?$pair@HH@0@U?$integral_constant@I$0A@@0@@Z
	mov	eax, DWORD PTR fs:0
	push	eax
	sub	esp, 192				; 000000c0H
	push	ebx
	push	esi
	push	edi
	lea	edi, DWORD PTR [ebp-204]
	mov	ecx, 48					; 00000030H
	mov	eax, -858993460				; ccccccccH
	rep stosd
	mov	eax, DWORD PTR ___security_cookie
	xor	eax, ebp
	push	eax
	lea	eax, DWORD PTR __$EHRec$[ebp]
	mov	DWORD PTR fs:0, eax
	mov	ecx, OFFSET __B1DBDA87_utility
	call	@__CheckForDebuggerJustMyCode@4
; Line 444
	mov	eax, DWORD PTR __Pr$[ebp]
; Line 445
	mov	ecx, DWORD PTR __$EHRec$[ebp]
	mov	DWORD PTR fs:0, ecx
	pop	ecx
	pop	edi
	pop	esi
	pop	ebx
	add	esp, 204				; 000000ccH
	cmp	ebp, esp
	call	__RTC_CheckEsp
	mov	esp, ebp
	pop	ebp
	ret	0
_TEXT	ENDS
;	COMDAT text$x
text$x	SEGMENT
__ehhandler$??$_Pair_get@AAHU?$pair@HH@std@@@std@@YAAAHAAU?$pair@HH@0@U?$integral_constant@I$0A@@0@@Z:
	mov	edx, DWORD PTR [esp+8]
	lea	eax, DWORD PTR [edx+12]
	mov	ecx, DWORD PTR [edx-208]
	xor	ecx, eax
	call	@__security_check_cookie@4
	mov	eax, OFFSET __ehfuncinfo$??$_Pair_get@AAHU?$pair@HH@std@@@std@@YAAAHAAU?$pair@HH@0@U?$integral_constant@I$0A@@0@@Z
	jmp	___CxxFrameHandler3
text$x	ENDS
??$_Pair_get@AAHU?$pair@HH@std@@@std@@YAAAHAAU?$pair@HH@0@U?$integral_constant@I$0A@@0@@Z ENDP ; std::_Pair_get<int &,std::pair<int,int> >
; Function compile flags: /Odtp /RTCsu /ZI
;	COMDAT ??$_Pair_get@AAHU?$pair@HH@std@@@std@@YAAAHAAU?$pair@HH@0@U?$integral_constant@I$00@0@@Z
_TEXT	SEGMENT
__$EHRec$ = -12						; size = 12
__Pr$ = 8						; size = 4
___formal$ = 12						; size = 1
??$_Pair_get@AAHU?$pair@HH@std@@@std@@YAAAHAAU?$pair@HH@0@U?$integral_constant@I$00@0@@Z PROC ; std::_Pair_get<int &,std::pair<int,int> >, COMDAT
; File C:\Program Files (x86)\Microsoft Visual Studio\2019\Community\VC\Tools\MSVC\14.23.28105\include\utility
; Line 448
	push	ebp
	mov	ebp, esp
	push	-1
	push	__ehhandler$??$_Pair_get@AAHU?$pair@HH@std@@@std@@YAAAHAAU?$pair@HH@0@U?$integral_constant@I$00@0@@Z
	mov	eax, DWORD PTR fs:0
	push	eax
	sub	esp, 192				; 000000c0H
	push	ebx
	push	esi
	push	edi
	lea	edi, DWORD PTR [ebp-204]
	mov	ecx, 48					; 00000030H
	mov	eax, -858993460				; ccccccccH
	rep stosd
	mov	eax, DWORD PTR ___security_cookie
	xor	eax, ebp
	push	eax
	lea	eax, DWORD PTR __$EHRec$[ebp]
	mov	DWORD PTR fs:0, eax
	mov	ecx, OFFSET __B1DBDA87_utility
	call	@__CheckForDebuggerJustMyCode@4
; Line 449
	mov	eax, DWORD PTR __Pr$[ebp]
	add	eax, 4
; Line 450
	mov	ecx, DWORD PTR __$EHRec$[ebp]
	mov	DWORD PTR fs:0, ecx
	pop	ecx
	pop	edi
	pop	esi
	pop	ebx
	add	esp, 204				; 000000ccH
	cmp	ebp, esp
	call	__RTC_CheckEsp
	mov	esp, ebp
	pop	ebp
	ret	0
_TEXT	ENDS
;	COMDAT text$x
text$x	SEGMENT
__ehhandler$??$_Pair_get@AAHU?$pair@HH@std@@@std@@YAAAHAAU?$pair@HH@0@U?$integral_constant@I$00@0@@Z:
	mov	edx, DWORD PTR [esp+8]
	lea	eax, DWORD PTR [edx+12]
	mov	ecx, DWORD PTR [edx-208]
	xor	ecx, eax
	call	@__security_check_cookie@4
	mov	eax, OFFSET __ehfuncinfo$??$_Pair_get@AAHU?$pair@HH@std@@@std@@YAAAHAAU?$pair@HH@0@U?$integral_constant@I$00@0@@Z
	jmp	___CxxFrameHandler3
text$x	ENDS
??$_Pair_get@AAHU?$pair@HH@std@@@std@@YAAAHAAU?$pair@HH@0@U?$integral_constant@I$00@0@@Z ENDP ; std::_Pair_get<int &,std::pair<int,int> >
; Function compile flags: /Odtp /RTCsu /ZI
;	COMDAT ??$_Pair_get@AANU?$pair@NN@std@@@std@@YAAANAAU?$pair@NN@0@U?$integral_constant@I$0A@@0@@Z
_TEXT	SEGMENT
__$EHRec$ = -12						; size = 12
__Pr$ = 8						; size = 4
___formal$ = 12						; size = 1
??$_Pair_get@AANU?$pair@NN@std@@@std@@YAAANAAU?$pair@NN@0@U?$integral_constant@I$0A@@0@@Z PROC ; std::_Pair_get<double &,std::pair<double,double> >, COMDAT
; File C:\Program Files (x86)\Microsoft Visual Studio\2019\Community\VC\Tools\MSVC\14.23.28105\include\utility
; Line 443
	push	ebp
	mov	ebp, esp
	push	-1
	push	__ehhandler$??$_Pair_get@AANU?$pair@NN@std@@@std@@YAAANAAU?$pair@NN@0@U?$integral_constant@I$0A@@0@@Z
	mov	eax, DWORD PTR fs:0
	push	eax
	sub	esp, 192				; 000000c0H
	push	ebx
	push	esi
	push	edi
	lea	edi, DWORD PTR [ebp-204]
	mov	ecx, 48					; 00000030H
	mov	eax, -858993460				; ccccccccH
	rep stosd
	mov	eax, DWORD PTR ___security_cookie
	xor	eax, ebp
	push	eax
	lea	eax, DWORD PTR __$EHRec$[ebp]
	mov	DWORD PTR fs:0, eax
	mov	ecx, OFFSET __B1DBDA87_utility
	call	@__CheckForDebuggerJustMyCode@4
; Line 444
	mov	eax, DWORD PTR __Pr$[ebp]
; Line 445
	mov	ecx, DWORD PTR __$EHRec$[ebp]
	mov	DWORD PTR fs:0, ecx
	pop	ecx
	pop	edi
	pop	esi
	pop	ebx
	add	esp, 204				; 000000ccH
	cmp	ebp, esp
	call	__RTC_CheckEsp
	mov	esp, ebp
	pop	ebp
	ret	0
_TEXT	ENDS
;	COMDAT text$x
text$x	SEGMENT
__ehhandler$??$_Pair_get@AANU?$pair@NN@std@@@std@@YAAANAAU?$pair@NN@0@U?$integral_constant@I$0A@@0@@Z:
	mov	edx, DWORD PTR [esp+8]
	lea	eax, DWORD PTR [edx+12]
	mov	ecx, DWORD PTR [edx-208]
	xor	ecx, eax
	call	@__security_check_cookie@4
	mov	eax, OFFSET __ehfuncinfo$??$_Pair_get@AANU?$pair@NN@std@@@std@@YAAANAAU?$pair@NN@0@U?$integral_constant@I$0A@@0@@Z
	jmp	___CxxFrameHandler3
text$x	ENDS
??$_Pair_get@AANU?$pair@NN@std@@@std@@YAAANAAU?$pair@NN@0@U?$integral_constant@I$0A@@0@@Z ENDP ; std::_Pair_get<double &,std::pair<double,double> >
; Function compile flags: /Odtp /RTCsu /ZI
;	COMDAT ??$_Pair_get@AANU?$pair@NN@std@@@std@@YAAANAAU?$pair@NN@0@U?$integral_constant@I$00@0@@Z
_TEXT	SEGMENT
__$EHRec$ = -12						; size = 12
__Pr$ = 8						; size = 4
___formal$ = 12						; size = 1
??$_Pair_get@AANU?$pair@NN@std@@@std@@YAAANAAU?$pair@NN@0@U?$integral_constant@I$00@0@@Z PROC ; std::_Pair_get<double &,std::pair<double,double> >, COMDAT
; File C:\Program Files (x86)\Microsoft Visual Studio\2019\Community\VC\Tools\MSVC\14.23.28105\include\utility
; Line 448
	push	ebp
	mov	ebp, esp
	push	-1
	push	__ehhandler$??$_Pair_get@AANU?$pair@NN@std@@@std@@YAAANAAU?$pair@NN@0@U?$integral_constant@I$00@0@@Z
	mov	eax, DWORD PTR fs:0
	push	eax
	sub	esp, 192				; 000000c0H
	push	ebx
	push	esi
	push	edi
	lea	edi, DWORD PTR [ebp-204]
	mov	ecx, 48					; 00000030H
	mov	eax, -858993460				; ccccccccH
	rep stosd
	mov	eax, DWORD PTR ___security_cookie
	xor	eax, ebp
	push	eax
	lea	eax, DWORD PTR __$EHRec$[ebp]
	mov	DWORD PTR fs:0, eax
	mov	ecx, OFFSET __B1DBDA87_utility
	call	@__CheckForDebuggerJustMyCode@4
; Line 449
	mov	eax, DWORD PTR __Pr$[ebp]
	add	eax, 8
; Line 450
	mov	ecx, DWORD PTR __$EHRec$[ebp]
	mov	DWORD PTR fs:0, ecx
	pop	ecx
	pop	edi
	pop	esi
	pop	ebx
	add	esp, 204				; 000000ccH
	cmp	ebp, esp
	call	__RTC_CheckEsp
	mov	esp, ebp
	pop	ebp
	ret	0
_TEXT	ENDS
;	COMDAT text$x
text$x	SEGMENT
__ehhandler$??$_Pair_get@AANU?$pair@NN@std@@@std@@YAAANAAU?$pair@NN@0@U?$integral_constant@I$00@0@@Z:
	mov	edx, DWORD PTR [esp+8]
	lea	eax, DWORD PTR [edx+12]
	mov	ecx, DWORD PTR [edx-208]
	xor	ecx, eax
	call	@__security_check_cookie@4
	mov	eax, OFFSET __ehfuncinfo$??$_Pair_get@AANU?$pair@NN@std@@@std@@YAAANAAU?$pair@NN@0@U?$integral_constant@I$00@0@@Z
	jmp	___CxxFrameHandler3
text$x	ENDS
??$_Pair_get@AANU?$pair@NN@std@@@std@@YAAANAAU?$pair@NN@0@U?$integral_constant@I$00@0@@Z ENDP ; std::_Pair_get<double &,std::pair<double,double> >
; Function compile flags: /Odtp /RTCsu /ZI
;	COMDAT ??$_Get_size_of_n@$03@std@@YAII@Z
_TEXT	SEGMENT
__Max_possible$1 = -20					; size = 4
__Overflow_is_possible$ = -5				; size = 1
__Count$ = 8						; size = 4
??$_Get_size_of_n@$03@std@@YAII@Z PROC			; std::_Get_size_of_n<4>, COMDAT
; File C:\Program Files (x86)\Microsoft Visual Studio\2019\Community\VC\Tools\MSVC\14.23.28105\include\xmemory
; Line 24
	push	ebp
	mov	ebp, esp
	sub	esp, 216				; 000000d8H
	push	ebx
	push	esi
	push	edi
	lea	edi, DWORD PTR [ebp-216]
	mov	ecx, 54					; 00000036H
	mov	eax, -858993460				; ccccccccH
	rep stosd
	mov	ecx, OFFSET __DB4EB944_xmemory
	call	@__CheckForDebuggerJustMyCode@4
; Line 25
	mov	BYTE PTR __Overflow_is_possible$[ebp], 1
; Line 29
	mov	DWORD PTR __Max_possible$1[ebp], 1073741823 ; 3fffffffH
; Line 30
	cmp	DWORD PTR __Count$[ebp], 1073741823	; 3fffffffH
	jbe	SHORT $LN2@Get_size_o
; Line 31
	call	?_Throw_bad_array_new_length@std@@YAXXZ	; std::_Throw_bad_array_new_length
$LN2@Get_size_o:
; Line 35
	mov	eax, DWORD PTR __Count$[ebp]
	shl	eax, 2
$LN3@Get_size_o:
; Line 36
	pop	edi
	pop	esi
	pop	ebx
	add	esp, 216				; 000000d8H
	cmp	ebp, esp
	call	__RTC_CheckEsp
	mov	esp, ebp
	pop	ebp
	ret	0
??$_Get_size_of_n@$03@std@@YAII@Z ENDP			; std::_Get_size_of_n<4>
_TEXT	ENDS
; Function compile flags: /Odtp /RTCsu /ZI
;	COMDAT ??$_Allocate_manually_vector_aligned@U_Default_allocate_traits@std@@@std@@YAPAXI@Z
_TEXT	SEGMENT
__Ptr$ = -32						; size = 4
__Ptr_container$ = -20					; size = 4
__Block_size$ = -8					; size = 4
__Bytes$ = 8						; size = 4
??$_Allocate_manually_vector_aligned@U_Default_allocate_traits@std@@@std@@YAPAXI@Z PROC ; std::_Allocate_manually_vector_aligned<std::_Default_allocate_traits>, COMDAT
; File C:\Program Files (x86)\Microsoft Visual Studio\2019\Community\VC\Tools\MSVC\14.23.28105\include\xmemory
; Line 83
	push	ebp
	mov	ebp, esp
	sub	esp, 228				; 000000e4H
	push	ebx
	push	esi
	push	edi
	lea	edi, DWORD PTR [ebp-228]
	mov	ecx, 57					; 00000039H
	mov	eax, -858993460				; ccccccccH
	rep stosd
	mov	ecx, OFFSET __DB4EB944_xmemory
	call	@__CheckForDebuggerJustMyCode@4
; Line 85
	mov	eax, DWORD PTR __Bytes$[ebp]
	add	eax, 39					; 00000027H
	mov	DWORD PTR __Block_size$[ebp], eax
; Line 86
	mov	eax, DWORD PTR __Block_size$[ebp]
	cmp	eax, DWORD PTR __Bytes$[ebp]
	ja	SHORT $LN8@Allocate_m
; Line 87
	call	?_Throw_bad_array_new_length@std@@YAXXZ	; std::_Throw_bad_array_new_length
$LN8@Allocate_m:
; Line 90
	mov	eax, DWORD PTR __Block_size$[ebp]
	push	eax
	call	?_Allocate@_Default_allocate_traits@std@@SAPAXI@Z ; std::_Default_allocate_traits::_Allocate
	add	esp, 4
	mov	DWORD PTR __Ptr_container$[ebp], eax
$LN4@Allocate_m:
; Line 91
	cmp	DWORD PTR __Ptr_container$[ebp], 0
	je	SHORT $LN7@Allocate_m
	jmp	SHORT $LN2@Allocate_m
$LN7@Allocate_m:
	mov	esi, esp
	push	OFFSET ??_C@_0BB@FCMFBGOM@invalid?5argument@
	push	OFFSET ??_C@_02DKCKIIND@?$CFs@
	push	0
	push	91					; 0000005bH
	push	OFFSET ??_C@_0GI@FJIKDGOA@C?3?2Program?5Files?5?$CIx86?$CJ?2Microsof@
	push	2
	call	DWORD PTR __imp___CrtDbgReport
	add	esp, 24					; 00000018H
	cmp	esi, esp
	call	__RTC_CheckEsp
	cmp	eax, 1
	jne	SHORT $LN12@Allocate_m
	int	3
$LN12@Allocate_m:
	mov	esi, esp
	push	0
	push	91					; 0000005bH
	push	OFFSET ??_C@_1NA@CDBIFGMM@?$AAC?$AA?3?$AA?2?$AAP?$AAr?$AAo?$AAg?$AAr?$AAa?$AAm?$AA?5?$AAF?$AAi?$AAl?$AAe@
	push	OFFSET ??_C@_1EO@GFNCMDLA@?$AAs?$AAt?$AAd?$AA?3?$AA?3?$AA_?$AAA?$AAl?$AAl?$AAo?$AAc?$AAa?$AAt?$AAe?$AA_@
	push	OFFSET ??_C@_1CG@JNLFBNGN@?$AA?$CC?$AAi?$AAn?$AAv?$AAa?$AAl?$AAi?$AAd?$AA?5?$AAa?$AAr?$AAg?$AAu?$AAm?$AAe@
	call	DWORD PTR __imp___invalid_parameter
	add	esp, 20					; 00000014H
	cmp	esi, esp
	call	__RTC_CheckEsp
	xor	eax, eax
	jne	SHORT $LN7@Allocate_m
$LN2@Allocate_m:
	xor	eax, eax
	jne	SHORT $LN4@Allocate_m
; Line 92
	mov	eax, DWORD PTR __Ptr_container$[ebp]
	add	eax, 39					; 00000027H
	and	eax, -32				; ffffffe0H
	mov	DWORD PTR __Ptr$[ebp], eax
; Line 93
	mov	eax, 4
	imul	ecx, eax, -1
	mov	edx, DWORD PTR __Ptr$[ebp]
	mov	eax, DWORD PTR __Ptr_container$[ebp]
	mov	DWORD PTR [edx+ecx], eax
; Line 96
	mov	eax, 4
	imul	ecx, eax, -2
	mov	edx, DWORD PTR __Ptr$[ebp]
	mov	DWORD PTR [edx+ecx], -84215046		; fafafafaH
; Line 98
	mov	eax, DWORD PTR __Ptr$[ebp]
$LN11@Allocate_m:
; Line 99
	pop	edi
	pop	esi
	pop	ebx
	add	esp, 228				; 000000e4H
	cmp	ebp, esp
	call	__RTC_CheckEsp
	mov	esp, ebp
	pop	ebp
	ret	0
??$_Allocate_manually_vector_aligned@U_Default_allocate_traits@std@@@std@@YAPAXI@Z ENDP ; std::_Allocate_manually_vector_aligned<std::_Default_allocate_traits>
_TEXT	ENDS
; Function compile flags: /Odtp /RTCsu /ZI
;	COMDAT ??$_Ucopy@PBH@?$vector@HV?$allocator@H@std@@@std@@AAEPAHPBH0PAH@Z
_TEXT	SEGMENT
_this$ = -8						; size = 4
__First$ = 8						; size = 4
__Last$ = 12						; size = 4
__Dest$ = 16						; size = 4
??$_Ucopy@PBH@?$vector@HV?$allocator@H@std@@@std@@AAEPAHPBH0PAH@Z PROC ; std::vector<int,std::allocator<int> >::_Ucopy<int const *>, COMDAT
; _this$ = ecx
; File C:\Program Files (x86)\Microsoft Visual Studio\2019\Community\VC\Tools\MSVC\14.23.28105\include\vector
; Line 1543
	push	ebp
	mov	ebp, esp
	sub	esp, 204				; 000000ccH
	push	ebx
	push	esi
	push	edi
	push	ecx
	lea	edi, DWORD PTR [ebp-204]
	mov	ecx, 51					; 00000033H
	mov	eax, -858993460				; ccccccccH
	rep stosd
	pop	ecx
	mov	DWORD PTR _this$[ebp], ecx
	mov	ecx, OFFSET __C9967FC1_vector
	call	@__CheckForDebuggerJustMyCode@4
; Line 1544
	mov	ecx, DWORD PTR _this$[ebp]
	call	?_Getal@?$vector@HV?$allocator@H@std@@@std@@AAEAAV?$allocator@H@2@XZ ; std::vector<int,std::allocator<int> >::_Getal
	push	eax
	mov	eax, DWORD PTR __Dest$[ebp]
	push	eax
	mov	ecx, DWORD PTR __Last$[ebp]
	push	ecx
	mov	edx, DWORD PTR __First$[ebp]
	push	edx
	call	??$_Uninitialized_copy@PBHV?$allocator@H@std@@@std@@YAPAHQBH0PAHAAV?$allocator@H@0@@Z ; std::_Uninitialized_copy<int const *,std::allocator<int> >
	add	esp, 16					; 00000010H
; Line 1545
	pop	edi
	pop	esi
	pop	ebx
	add	esp, 204				; 000000ccH
	cmp	ebp, esp
	call	__RTC_CheckEsp
	mov	esp, ebp
	pop	ebp
	ret	12					; 0000000cH
??$_Ucopy@PBH@?$vector@HV?$allocator@H@std@@@std@@AAEPAHPBH0PAH@Z ENDP ; std::vector<int,std::allocator<int> >::_Ucopy<int const *>
_TEXT	ENDS
; Function compile flags: /Odtp /RTCsu /ZI
;	COMDAT ??1?$_Tidy_guard@V?$vector@HV?$allocator@H@std@@@std@@@std@@QAE@XZ
_TEXT	SEGMENT
_this$ = -20						; size = 4
__$EHRec$ = -12						; size = 12
??1?$_Tidy_guard@V?$vector@HV?$allocator@H@std@@@std@@@std@@QAE@XZ PROC ; std::_Tidy_guard<std::vector<int,std::allocator<int> > >::~_Tidy_guard<std::vector<int,std::allocator<int> > >, COMDAT
; _this$ = ecx
; File C:\Program Files (x86)\Microsoft Visual Studio\2019\Community\VC\Tools\MSVC\14.23.28105\include\xutility
; Line 3526
	push	ebp
	mov	ebp, esp
	push	-1
	push	__ehhandler$??1?$_Tidy_guard@V?$vector@HV?$allocator@H@std@@@std@@@std@@QAE@XZ
	mov	eax, DWORD PTR fs:0
	push	eax
	sub	esp, 204				; 000000ccH
	push	ebx
	push	esi
	push	edi
	push	ecx
	lea	edi, DWORD PTR [ebp-216]
	mov	ecx, 51					; 00000033H
	mov	eax, -858993460				; ccccccccH
	rep stosd
	pop	ecx
	mov	eax, DWORD PTR ___security_cookie
	xor	eax, ebp
	push	eax
	lea	eax, DWORD PTR __$EHRec$[ebp]
	mov	DWORD PTR fs:0, eax
	mov	DWORD PTR _this$[ebp], ecx
	mov	ecx, OFFSET __86E03ACD_xutility
	call	@__CheckForDebuggerJustMyCode@4
; Line 3527
	mov	eax, DWORD PTR _this$[ebp]
	cmp	DWORD PTR [eax], 0
	je	SHORT $LN3@Tidy_guard
; Line 3528
	mov	eax, DWORD PTR _this$[ebp]
	mov	ecx, DWORD PTR [eax]
	call	?_Tidy@?$vector@HV?$allocator@H@std@@@std@@AAEXXZ ; std::vector<int,std::allocator<int> >::_Tidy
$LN3@Tidy_guard:
; Line 3530
	mov	ecx, DWORD PTR __$EHRec$[ebp]
	mov	DWORD PTR fs:0, ecx
	pop	ecx
	pop	edi
	pop	esi
	pop	ebx
	add	esp, 216				; 000000d8H
	cmp	ebp, esp
	call	__RTC_CheckEsp
	mov	esp, ebp
	pop	ebp
	ret	0
_TEXT	ENDS
;	COMDAT text$x
text$x	SEGMENT
__ehhandler$??1?$_Tidy_guard@V?$vector@HV?$allocator@H@std@@@std@@@std@@QAE@XZ:
	mov	edx, DWORD PTR [esp+8]
	lea	eax, DWORD PTR [edx+12]
	mov	ecx, DWORD PTR [edx-220]
	xor	ecx, eax
	call	@__security_check_cookie@4
	mov	eax, OFFSET __ehfuncinfo$??1?$_Tidy_guard@V?$vector@HV?$allocator@H@std@@@std@@@std@@QAE@XZ
	jmp	___CxxFrameHandler3
text$x	ENDS
??1?$_Tidy_guard@V?$vector@HV?$allocator@H@std@@@std@@@std@@QAE@XZ ENDP ; std::_Tidy_guard<std::vector<int,std::allocator<int> > >::~_Tidy_guard<std::vector<int,std::allocator<int> > >
; Function compile flags: /Odtp /RTCsu /ZI
;	COMDAT ??$distance@PBH@std@@YAHPBH0@Z
_TEXT	SEGMENT
__First$ = 8						; size = 4
__Last$ = 12						; size = 4
??$distance@PBH@std@@YAHPBH0@Z PROC			; std::distance<int const *>, COMDAT
; File C:\Program Files (x86)\Microsoft Visual Studio\2019\Community\VC\Tools\MSVC\14.23.28105\include\xutility
; Line 781
	push	ebp
	mov	ebp, esp
	sub	esp, 192				; 000000c0H
	push	ebx
	push	esi
	push	edi
	lea	edi, DWORD PTR [ebp-192]
	mov	ecx, 48					; 00000030H
	mov	eax, -858993460				; ccccccccH
	rep stosd
	mov	ecx, OFFSET __86E03ACD_xutility
	call	@__CheckForDebuggerJustMyCode@4
; Line 783
	mov	eax, DWORD PTR __Last$[ebp]
	sub	eax, DWORD PTR __First$[ebp]
	sar	eax, 2
; Line 795
	pop	edi
	pop	esi
	pop	ebx
	add	esp, 192				; 000000c0H
	cmp	ebp, esp
	call	__RTC_CheckEsp
	mov	esp, ebp
	pop	ebp
	ret	0
??$distance@PBH@std@@YAHPBH0@Z ENDP			; std::distance<int const *>
_TEXT	ENDS
; Function compile flags: /Odtp /RTCsu /ZI
;	COMDAT ??$forward@ABV?$allocator@H@std@@@std@@YAABV?$allocator@H@0@ABV10@@Z
_TEXT	SEGMENT
__$EHRec$ = -12						; size = 12
__Arg$ = 8						; size = 4
??$forward@ABV?$allocator@H@std@@@std@@YAABV?$allocator@H@0@ABV10@@Z PROC ; std::forward<std::allocator<int> const &>, COMDAT
; File C:\Program Files (x86)\Microsoft Visual Studio\2019\Community\VC\Tools\MSVC\14.23.28105\include\type_traits
; Line 1420
	push	ebp
	mov	ebp, esp
	push	-1
	push	__ehhandler$??$forward@ABV?$allocator@H@std@@@std@@YAABV?$allocator@H@0@ABV10@@Z
	mov	eax, DWORD PTR fs:0
	push	eax
	sub	esp, 192				; 000000c0H
	push	ebx
	push	esi
	push	edi
	lea	edi, DWORD PTR [ebp-204]
	mov	ecx, 48					; 00000030H
	mov	eax, -858993460				; ccccccccH
	rep stosd
	mov	eax, DWORD PTR ___security_cookie
	xor	eax, ebp
	push	eax
	lea	eax, DWORD PTR __$EHRec$[ebp]
	mov	DWORD PTR fs:0, eax
	mov	ecx, OFFSET __FFC6471F_type_traits
	call	@__CheckForDebuggerJustMyCode@4
; Line 1421
	mov	eax, DWORD PTR __Arg$[ebp]
; Line 1422
	mov	ecx, DWORD PTR __$EHRec$[ebp]
	mov	DWORD PTR fs:0, ecx
	pop	ecx
	pop	edi
	pop	esi
	pop	ebx
	add	esp, 204				; 000000ccH
	cmp	ebp, esp
	call	__RTC_CheckEsp
	mov	esp, ebp
	pop	ebp
	ret	0
_TEXT	ENDS
;	COMDAT text$x
text$x	SEGMENT
__ehhandler$??$forward@ABV?$allocator@H@std@@@std@@YAABV?$allocator@H@0@ABV10@@Z:
	mov	edx, DWORD PTR [esp+8]
	lea	eax, DWORD PTR [edx+12]
	mov	ecx, DWORD PTR [edx-208]
	xor	ecx, eax
	call	@__security_check_cookie@4
	mov	eax, OFFSET __ehfuncinfo$??$forward@ABV?$allocator@H@std@@@std@@YAABV?$allocator@H@0@ABV10@@Z
	jmp	___CxxFrameHandler3
text$x	ENDS
??$forward@ABV?$allocator@H@std@@@std@@YAABV?$allocator@H@0@ABV10@@Z ENDP ; std::forward<std::allocator<int> const &>
; Function compile flags: /Odtp /RTCsu /ZI
;	COMDAT ??$_Deallocate_plain@V?$allocator@U_Container_proxy@std@@@std@@@std@@YAXAAV?$allocator@U_Container_proxy@std@@@0@QAU_Container_proxy@0@@Z
_TEXT	SEGMENT
__$EHRec$ = -12						; size = 12
__Al$ = 8						; size = 4
__Ptr$ = 12						; size = 4
??$_Deallocate_plain@V?$allocator@U_Container_proxy@std@@@std@@@std@@YAXAAV?$allocator@U_Container_proxy@std@@@0@QAU_Container_proxy@0@@Z PROC ; std::_Deallocate_plain<std::allocator<std::_Container_proxy> >, COMDAT
; File C:\Program Files (x86)\Microsoft Visual Studio\2019\Community\VC\Tools\MSVC\14.23.28105\include\xmemory
; Line 1081
	push	ebp
	mov	ebp, esp
	push	-1
	push	__ehhandler$??$_Deallocate_plain@V?$allocator@U_Container_proxy@std@@@std@@@std@@YAXAAV?$allocator@U_Container_proxy@std@@@0@QAU_Container_proxy@0@@Z
	mov	eax, DWORD PTR fs:0
	push	eax
	sub	esp, 192				; 000000c0H
	push	ebx
	push	esi
	push	edi
	lea	edi, DWORD PTR [ebp-204]
	mov	ecx, 48					; 00000030H
	mov	eax, -858993460				; ccccccccH
	rep stosd
	mov	eax, DWORD PTR ___security_cookie
	xor	eax, ebp
	push	eax
	lea	eax, DWORD PTR __$EHRec$[ebp]
	mov	DWORD PTR fs:0, eax
	mov	ecx, OFFSET __DB4EB944_xmemory
	call	@__CheckForDebuggerJustMyCode@4
; Line 1085
	push	1
	mov	eax, DWORD PTR __Ptr$[ebp]
	push	eax
	mov	ecx, DWORD PTR __Al$[ebp]
	push	ecx
	call	?deallocate@?$_Default_allocator_traits@V?$allocator@U_Container_proxy@std@@@std@@@std@@SAXAAV?$allocator@U_Container_proxy@std@@@2@QAU_Container_proxy@2@I@Z ; std::_Default_allocator_traits<std::allocator<std::_Container_proxy> >::deallocate
	add	esp, 12					; 0000000cH
; Line 1090
	mov	ecx, DWORD PTR __$EHRec$[ebp]
	mov	DWORD PTR fs:0, ecx
	pop	ecx
	pop	edi
	pop	esi
	pop	ebx
	add	esp, 204				; 000000ccH
	cmp	ebp, esp
	call	__RTC_CheckEsp
	mov	esp, ebp
	pop	ebp
	ret	0
_TEXT	ENDS
;	COMDAT text$x
text$x	SEGMENT
__ehhandler$??$_Deallocate_plain@V?$allocator@U_Container_proxy@std@@@std@@@std@@YAXAAV?$allocator@U_Container_proxy@std@@@0@QAU_Container_proxy@0@@Z:
	mov	edx, DWORD PTR [esp+8]
	lea	eax, DWORD PTR [edx+12]
	mov	ecx, DWORD PTR [edx-208]
	xor	ecx, eax
	call	@__security_check_cookie@4
	mov	eax, OFFSET __ehfuncinfo$??$_Deallocate_plain@V?$allocator@U_Container_proxy@std@@@std@@@std@@YAXAAV?$allocator@U_Container_proxy@std@@@0@QAU_Container_proxy@0@@Z
	jmp	___CxxFrameHandler3
text$x	ENDS
??$_Deallocate_plain@V?$allocator@U_Container_proxy@std@@@std@@@std@@YAXAAV?$allocator@U_Container_proxy@std@@@0@QAU_Container_proxy@0@@Z ENDP ; std::_Deallocate_plain<std::allocator<std::_Container_proxy> >
; Function compile flags: /Odtp /RTCsu /ZI
;	COMDAT ??$forward@$$QAH@std@@YA$$QAHAAH@Z
_TEXT	SEGMENT
__$EHRec$ = -12						; size = 12
__Arg$ = 8						; size = 4
??$forward@$$QAH@std@@YA$$QAHAAH@Z PROC			; std::forward<int &&>, COMDAT
; File C:\Program Files (x86)\Microsoft Visual Studio\2019\Community\VC\Tools\MSVC\14.23.28105\include\type_traits
; Line 1420
	push	ebp
	mov	ebp, esp
	push	-1
	push	__ehhandler$??$forward@$$QAH@std@@YA$$QAHAAH@Z
	mov	eax, DWORD PTR fs:0
	push	eax
	sub	esp, 192				; 000000c0H
	push	ebx
	push	esi
	push	edi
	lea	edi, DWORD PTR [ebp-204]
	mov	ecx, 48					; 00000030H
	mov	eax, -858993460				; ccccccccH
	rep stosd
	mov	eax, DWORD PTR ___security_cookie
	xor	eax, ebp
	push	eax
	lea	eax, DWORD PTR __$EHRec$[ebp]
	mov	DWORD PTR fs:0, eax
	mov	ecx, OFFSET __FFC6471F_type_traits
	call	@__CheckForDebuggerJustMyCode@4
; Line 1421
	mov	eax, DWORD PTR __Arg$[ebp]
; Line 1422
	mov	ecx, DWORD PTR __$EHRec$[ebp]
	mov	DWORD PTR fs:0, ecx
	pop	ecx
	pop	edi
	pop	esi
	pop	ebx
	add	esp, 204				; 000000ccH
	cmp	ebp, esp
	call	__RTC_CheckEsp
	mov	esp, ebp
	pop	ebp
	ret	0
_TEXT	ENDS
;	COMDAT text$x
text$x	SEGMENT
__ehhandler$??$forward@$$QAH@std@@YA$$QAHAAH@Z:
	mov	edx, DWORD PTR [esp+8]
	lea	eax, DWORD PTR [edx+12]
	mov	ecx, DWORD PTR [edx-208]
	xor	ecx, eax
	call	@__security_check_cookie@4
	mov	eax, OFFSET __ehfuncinfo$??$forward@$$QAH@std@@YA$$QAHAAH@Z
	jmp	___CxxFrameHandler3
text$x	ENDS
??$forward@$$QAH@std@@YA$$QAHAAH@Z ENDP			; std::forward<int &&>
; Function compile flags: /Odtp /RTCsu /ZI
;	COMDAT ??$forward@$$QAN@std@@YA$$QANAAN@Z
_TEXT	SEGMENT
__$EHRec$ = -12						; size = 12
__Arg$ = 8						; size = 4
??$forward@$$QAN@std@@YA$$QANAAN@Z PROC			; std::forward<double &&>, COMDAT
; File C:\Program Files (x86)\Microsoft Visual Studio\2019\Community\VC\Tools\MSVC\14.23.28105\include\type_traits
; Line 1420
	push	ebp
	mov	ebp, esp
	push	-1
	push	__ehhandler$??$forward@$$QAN@std@@YA$$QANAAN@Z
	mov	eax, DWORD PTR fs:0
	push	eax
	sub	esp, 192				; 000000c0H
	push	ebx
	push	esi
	push	edi
	lea	edi, DWORD PTR [ebp-204]
	mov	ecx, 48					; 00000030H
	mov	eax, -858993460				; ccccccccH
	rep stosd
	mov	eax, DWORD PTR ___security_cookie
	xor	eax, ebp
	push	eax
	lea	eax, DWORD PTR __$EHRec$[ebp]
	mov	DWORD PTR fs:0, eax
	mov	ecx, OFFSET __FFC6471F_type_traits
	call	@__CheckForDebuggerJustMyCode@4
; Line 1421
	mov	eax, DWORD PTR __Arg$[ebp]
; Line 1422
	mov	ecx, DWORD PTR __$EHRec$[ebp]
	mov	DWORD PTR fs:0, ecx
	pop	ecx
	pop	edi
	pop	esi
	pop	ebx
	add	esp, 204				; 000000ccH
	cmp	ebp, esp
	call	__RTC_CheckEsp
	mov	esp, ebp
	pop	ebp
	ret	0
_TEXT	ENDS
;	COMDAT text$x
text$x	SEGMENT
__ehhandler$??$forward@$$QAN@std@@YA$$QANAAN@Z:
	mov	edx, DWORD PTR [esp+8]
	lea	eax, DWORD PTR [edx+12]
	mov	ecx, DWORD PTR [edx-208]
	xor	ecx, eax
	call	@__security_check_cookie@4
	mov	eax, OFFSET __ehfuncinfo$??$forward@$$QAN@std@@YA$$QANAAN@Z
	jmp	___CxxFrameHandler3
text$x	ENDS
??$forward@$$QAN@std@@YA$$QANAAN@Z ENDP			; std::forward<double &&>
; Function compile flags: /Odtp /RTCsu /ZI
;	COMDAT ??$_Assign@U?$pair@HH@std@@@?$_Optional_construct_base@U?$pair@HH@std@@@std@@QAEX$$QAU?$pair@HH@1@@Z
_TEXT	SEGMENT
_this$ = -8						; size = 4
__Right$ = 8						; size = 4
??$_Assign@U?$pair@HH@std@@@?$_Optional_construct_base@U?$pair@HH@std@@@std@@QAEX$$QAU?$pair@HH@1@@Z PROC ; std::_Optional_construct_base<std::pair<int,int> >::_Assign<std::pair<int,int> >, COMDAT
; _this$ = ecx
; File C:\Program Files (x86)\Microsoft Visual Studio\2019\Community\VC\Tools\MSVC\14.23.28105\include\optional
; Line 122
	push	ebp
	mov	ebp, esp
	sub	esp, 204				; 000000ccH
	push	ebx
	push	esi
	push	edi
	push	ecx
	lea	edi, DWORD PTR [ebp-204]
	mov	ecx, 51					; 00000033H
	mov	eax, -858993460				; ccccccccH
	rep stosd
	pop	ecx
	mov	DWORD PTR _this$[ebp], ecx
	mov	ecx, OFFSET __EF3496CC_optional
	call	@__CheckForDebuggerJustMyCode@4
; Line 123
	mov	eax, DWORD PTR _this$[ebp]
	movzx	ecx, BYTE PTR [eax+8]
	test	ecx, ecx
	je	SHORT $LN2@Assign
; Line 124
	mov	eax, DWORD PTR __Right$[ebp]
	push	eax
	call	??$forward@U?$pair@HH@std@@@std@@YA$$QAU?$pair@HH@0@AAU10@@Z ; std::forward<std::pair<int,int> >
	add	esp, 4
	push	eax
	mov	ecx, DWORD PTR _this$[ebp]
	call	??$?4U?$pair@HH@std@@$0A@@?$pair@HH@std@@QAEAAU01@$$QAU01@@Z ; std::pair<int,int>::operator=<std::pair<int,int>,0>
; Line 125
	jmp	SHORT $LN1@Assign
$LN2@Assign:
; Line 126
	mov	eax, DWORD PTR __Right$[ebp]
	push	eax
	call	??$forward@U?$pair@HH@std@@@std@@YA$$QAU?$pair@HH@0@AAU10@@Z ; std::forward<std::pair<int,int> >
	add	esp, 4
	push	eax
	mov	ecx, DWORD PTR _this$[ebp]
	call	??$_Construct@U?$pair@HH@std@@@?$_Optional_construct_base@U?$pair@HH@std@@@std@@QAEAAU?$pair@HH@1@$$QAU21@@Z ; std::_Optional_construct_base<std::pair<int,int> >::_Construct<std::pair<int,int> >
$LN1@Assign:
; Line 128
	pop	edi
	pop	esi
	pop	ebx
	add	esp, 204				; 000000ccH
	cmp	ebp, esp
	call	__RTC_CheckEsp
	mov	esp, ebp
	pop	ebp
	ret	4
??$_Assign@U?$pair@HH@std@@@?$_Optional_construct_base@U?$pair@HH@std@@@std@@QAEX$$QAU?$pair@HH@1@@Z ENDP ; std::_Optional_construct_base<std::pair<int,int> >::_Assign<std::pair<int,int> >
_TEXT	ENDS
; Function compile flags: /Odtp /RTCsu /ZI
;	COMDAT ??$forward@U?$pair@HH@std@@@std@@YA$$QAU?$pair@HH@0@AAU10@@Z
_TEXT	SEGMENT
__$EHRec$ = -12						; size = 12
__Arg$ = 8						; size = 4
??$forward@U?$pair@HH@std@@@std@@YA$$QAU?$pair@HH@0@AAU10@@Z PROC ; std::forward<std::pair<int,int> >, COMDAT
; File C:\Program Files (x86)\Microsoft Visual Studio\2019\Community\VC\Tools\MSVC\14.23.28105\include\type_traits
; Line 1420
	push	ebp
	mov	ebp, esp
	push	-1
	push	__ehhandler$??$forward@U?$pair@HH@std@@@std@@YA$$QAU?$pair@HH@0@AAU10@@Z
	mov	eax, DWORD PTR fs:0
	push	eax
	sub	esp, 192				; 000000c0H
	push	ebx
	push	esi
	push	edi
	lea	edi, DWORD PTR [ebp-204]
	mov	ecx, 48					; 00000030H
	mov	eax, -858993460				; ccccccccH
	rep stosd
	mov	eax, DWORD PTR ___security_cookie
	xor	eax, ebp
	push	eax
	lea	eax, DWORD PTR __$EHRec$[ebp]
	mov	DWORD PTR fs:0, eax
	mov	ecx, OFFSET __FFC6471F_type_traits
	call	@__CheckForDebuggerJustMyCode@4
; Line 1421
	mov	eax, DWORD PTR __Arg$[ebp]
; Line 1422
	mov	ecx, DWORD PTR __$EHRec$[ebp]
	mov	DWORD PTR fs:0, ecx
	pop	ecx
	pop	edi
	pop	esi
	pop	ebx
	add	esp, 204				; 000000ccH
	cmp	ebp, esp
	call	__RTC_CheckEsp
	mov	esp, ebp
	pop	ebp
	ret	0
_TEXT	ENDS
;	COMDAT text$x
text$x	SEGMENT
__ehhandler$??$forward@U?$pair@HH@std@@@std@@YA$$QAU?$pair@HH@0@AAU10@@Z:
	mov	edx, DWORD PTR [esp+8]
	lea	eax, DWORD PTR [edx+12]
	mov	ecx, DWORD PTR [edx-208]
	xor	ecx, eax
	call	@__security_check_cookie@4
	mov	eax, OFFSET __ehfuncinfo$??$forward@U?$pair@HH@std@@@std@@YA$$QAU?$pair@HH@0@AAU10@@Z
	jmp	___CxxFrameHandler3
text$x	ENDS
??$forward@U?$pair@HH@std@@@std@@YA$$QAU?$pair@HH@0@AAU10@@Z ENDP ; std::forward<std::pair<int,int> >
; Function compile flags: /Odtp /RTCsu /ZI
;	COMDAT ??$_Assign@U?$pair@NN@std@@@?$_Optional_construct_base@U?$pair@NN@std@@@std@@QAEX$$QAU?$pair@NN@1@@Z
_TEXT	SEGMENT
_this$ = -8						; size = 4
__Right$ = 8						; size = 4
??$_Assign@U?$pair@NN@std@@@?$_Optional_construct_base@U?$pair@NN@std@@@std@@QAEX$$QAU?$pair@NN@1@@Z PROC ; std::_Optional_construct_base<std::pair<double,double> >::_Assign<std::pair<double,double> >, COMDAT
; _this$ = ecx
; File C:\Program Files (x86)\Microsoft Visual Studio\2019\Community\VC\Tools\MSVC\14.23.28105\include\optional
; Line 122
	push	ebp
	mov	ebp, esp
	sub	esp, 204				; 000000ccH
	push	ebx
	push	esi
	push	edi
	push	ecx
	lea	edi, DWORD PTR [ebp-204]
	mov	ecx, 51					; 00000033H
	mov	eax, -858993460				; ccccccccH
	rep stosd
	pop	ecx
	mov	DWORD PTR _this$[ebp], ecx
	mov	ecx, OFFSET __EF3496CC_optional
	call	@__CheckForDebuggerJustMyCode@4
; Line 123
	mov	eax, DWORD PTR _this$[ebp]
	movzx	ecx, BYTE PTR [eax+16]
	test	ecx, ecx
	je	SHORT $LN2@Assign
; Line 124
	mov	eax, DWORD PTR __Right$[ebp]
	push	eax
	call	??$forward@U?$pair@NN@std@@@std@@YA$$QAU?$pair@NN@0@AAU10@@Z ; std::forward<std::pair<double,double> >
	add	esp, 4
	push	eax
	mov	ecx, DWORD PTR _this$[ebp]
	call	??$?4U?$pair@NN@std@@$0A@@?$pair@NN@std@@QAEAAU01@$$QAU01@@Z ; std::pair<double,double>::operator=<std::pair<double,double>,0>
; Line 125
	jmp	SHORT $LN1@Assign
$LN2@Assign:
; Line 126
	mov	eax, DWORD PTR __Right$[ebp]
	push	eax
	call	??$forward@U?$pair@NN@std@@@std@@YA$$QAU?$pair@NN@0@AAU10@@Z ; std::forward<std::pair<double,double> >
	add	esp, 4
	push	eax
	mov	ecx, DWORD PTR _this$[ebp]
	call	??$_Construct@U?$pair@NN@std@@@?$_Optional_construct_base@U?$pair@NN@std@@@std@@QAEAAU?$pair@NN@1@$$QAU21@@Z ; std::_Optional_construct_base<std::pair<double,double> >::_Construct<std::pair<double,double> >
$LN1@Assign:
; Line 128
	pop	edi
	pop	esi
	pop	ebx
	add	esp, 204				; 000000ccH
	cmp	ebp, esp
	call	__RTC_CheckEsp
	mov	esp, ebp
	pop	ebp
	ret	4
??$_Assign@U?$pair@NN@std@@@?$_Optional_construct_base@U?$pair@NN@std@@@std@@QAEX$$QAU?$pair@NN@1@@Z ENDP ; std::_Optional_construct_base<std::pair<double,double> >::_Assign<std::pair<double,double> >
_TEXT	ENDS
; Function compile flags: /Odtp /RTCsu /ZI
;	COMDAT ??$forward@U?$pair@NN@std@@@std@@YA$$QAU?$pair@NN@0@AAU10@@Z
_TEXT	SEGMENT
__$EHRec$ = -12						; size = 12
__Arg$ = 8						; size = 4
??$forward@U?$pair@NN@std@@@std@@YA$$QAU?$pair@NN@0@AAU10@@Z PROC ; std::forward<std::pair<double,double> >, COMDAT
; File C:\Program Files (x86)\Microsoft Visual Studio\2019\Community\VC\Tools\MSVC\14.23.28105\include\type_traits
; Line 1420
	push	ebp
	mov	ebp, esp
	push	-1
	push	__ehhandler$??$forward@U?$pair@NN@std@@@std@@YA$$QAU?$pair@NN@0@AAU10@@Z
	mov	eax, DWORD PTR fs:0
	push	eax
	sub	esp, 192				; 000000c0H
	push	ebx
	push	esi
	push	edi
	lea	edi, DWORD PTR [ebp-204]
	mov	ecx, 48					; 00000030H
	mov	eax, -858993460				; ccccccccH
	rep stosd
	mov	eax, DWORD PTR ___security_cookie
	xor	eax, ebp
	push	eax
	lea	eax, DWORD PTR __$EHRec$[ebp]
	mov	DWORD PTR fs:0, eax
	mov	ecx, OFFSET __FFC6471F_type_traits
	call	@__CheckForDebuggerJustMyCode@4
; Line 1421
	mov	eax, DWORD PTR __Arg$[ebp]
; Line 1422
	mov	ecx, DWORD PTR __$EHRec$[ebp]
	mov	DWORD PTR fs:0, ecx
	pop	ecx
	pop	edi
	pop	esi
	pop	ebx
	add	esp, 204				; 000000ccH
	cmp	ebp, esp
	call	__RTC_CheckEsp
	mov	esp, ebp
	pop	ebp
	ret	0
_TEXT	ENDS
;	COMDAT text$x
text$x	SEGMENT
__ehhandler$??$forward@U?$pair@NN@std@@@std@@YA$$QAU?$pair@NN@0@AAU10@@Z:
	mov	edx, DWORD PTR [esp+8]
	lea	eax, DWORD PTR [edx+12]
	mov	ecx, DWORD PTR [edx-208]
	xor	ecx, eax
	call	@__security_check_cookie@4
	mov	eax, OFFSET __ehfuncinfo$??$forward@U?$pair@NN@std@@@std@@YA$$QAU?$pair@NN@0@AAU10@@Z
	jmp	___CxxFrameHandler3
text$x	ENDS
??$forward@U?$pair@NN@std@@@std@@YA$$QAU?$pair@NN@0@AAU10@@Z ENDP ; std::forward<std::pair<double,double> >
; Function compile flags: /Odtp /RTCsu /ZI
;	COMDAT ??$forward@AAN@std@@YAAANAAN@Z
_TEXT	SEGMENT
__$EHRec$ = -12						; size = 12
__Arg$ = 8						; size = 4
??$forward@AAN@std@@YAAANAAN@Z PROC			; std::forward<double &>, COMDAT
; File C:\Program Files (x86)\Microsoft Visual Studio\2019\Community\VC\Tools\MSVC\14.23.28105\include\type_traits
; Line 1420
	push	ebp
	mov	ebp, esp
	push	-1
	push	__ehhandler$??$forward@AAN@std@@YAAANAAN@Z
	mov	eax, DWORD PTR fs:0
	push	eax
	sub	esp, 192				; 000000c0H
	push	ebx
	push	esi
	push	edi
	lea	edi, DWORD PTR [ebp-204]
	mov	ecx, 48					; 00000030H
	mov	eax, -858993460				; ccccccccH
	rep stosd
	mov	eax, DWORD PTR ___security_cookie
	xor	eax, ebp
	push	eax
	lea	eax, DWORD PTR __$EHRec$[ebp]
	mov	DWORD PTR fs:0, eax
	mov	ecx, OFFSET __FFC6471F_type_traits
	call	@__CheckForDebuggerJustMyCode@4
; Line 1421
	mov	eax, DWORD PTR __Arg$[ebp]
; Line 1422
	mov	ecx, DWORD PTR __$EHRec$[ebp]
	mov	DWORD PTR fs:0, ecx
	pop	ecx
	pop	edi
	pop	esi
	pop	ebx
	add	esp, 204				; 000000ccH
	cmp	ebp, esp
	call	__RTC_CheckEsp
	mov	esp, ebp
	pop	ebp
	ret	0
_TEXT	ENDS
;	COMDAT text$x
text$x	SEGMENT
__ehhandler$??$forward@AAN@std@@YAAANAAN@Z:
	mov	edx, DWORD PTR [esp+8]
	lea	eax, DWORD PTR [edx+12]
	mov	ecx, DWORD PTR [edx-208]
	xor	ecx, eax
	call	@__security_check_cookie@4
	mov	eax, OFFSET __ehfuncinfo$??$forward@AAN@std@@YAAANAAN@Z
	jmp	___CxxFrameHandler3
text$x	ENDS
??$forward@AAN@std@@YAAANAAN@Z ENDP			; std::forward<double &>
; Function compile flags: /Odtp /RTCsu /ZI
;	COMDAT ??$forward@PAU_Container_base12@std@@@std@@YA$$QAPAU_Container_base12@0@AAPAU10@@Z
_TEXT	SEGMENT
__$EHRec$ = -12						; size = 12
__Arg$ = 8						; size = 4
??$forward@PAU_Container_base12@std@@@std@@YA$$QAPAU_Container_base12@0@AAPAU10@@Z PROC ; std::forward<std::_Container_base12 *>, COMDAT
; File C:\Program Files (x86)\Microsoft Visual Studio\2019\Community\VC\Tools\MSVC\14.23.28105\include\type_traits
; Line 1420
	push	ebp
	mov	ebp, esp
	push	-1
	push	__ehhandler$??$forward@PAU_Container_base12@std@@@std@@YA$$QAPAU_Container_base12@0@AAPAU10@@Z
	mov	eax, DWORD PTR fs:0
	push	eax
	sub	esp, 192				; 000000c0H
	push	ebx
	push	esi
	push	edi
	lea	edi, DWORD PTR [ebp-204]
	mov	ecx, 48					; 00000030H
	mov	eax, -858993460				; ccccccccH
	rep stosd
	mov	eax, DWORD PTR ___security_cookie
	xor	eax, ebp
	push	eax
	lea	eax, DWORD PTR __$EHRec$[ebp]
	mov	DWORD PTR fs:0, eax
	mov	ecx, OFFSET __FFC6471F_type_traits
	call	@__CheckForDebuggerJustMyCode@4
; Line 1421
	mov	eax, DWORD PTR __Arg$[ebp]
; Line 1422
	mov	ecx, DWORD PTR __$EHRec$[ebp]
	mov	DWORD PTR fs:0, ecx
	pop	ecx
	pop	edi
	pop	esi
	pop	ebx
	add	esp, 204				; 000000ccH
	cmp	ebp, esp
	call	__RTC_CheckEsp
	mov	esp, ebp
	pop	ebp
	ret	0
_TEXT	ENDS
;	COMDAT text$x
text$x	SEGMENT
__ehhandler$??$forward@PAU_Container_base12@std@@@std@@YA$$QAPAU_Container_base12@0@AAPAU10@@Z:
	mov	edx, DWORD PTR [esp+8]
	lea	eax, DWORD PTR [edx+12]
	mov	ecx, DWORD PTR [edx-208]
	xor	ecx, eax
	call	@__security_check_cookie@4
	mov	eax, OFFSET __ehfuncinfo$??$forward@PAU_Container_base12@std@@@std@@YA$$QAPAU_Container_base12@0@AAPAU10@@Z
	jmp	___CxxFrameHandler3
text$x	ENDS
??$forward@PAU_Container_base12@std@@@std@@YA$$QAPAU_Container_base12@0@AAPAU10@@Z ENDP ; std::forward<std::_Container_base12 *>
; Function compile flags: /Odtp /RTCsu /ZI
;	COMDAT ??$addressof@U_Container_proxy@std@@@std@@YAPAU_Container_proxy@0@AAU10@@Z
_TEXT	SEGMENT
__$EHRec$ = -12						; size = 12
__Val$ = 8						; size = 4
??$addressof@U_Container_proxy@std@@@std@@YAPAU_Container_proxy@0@AAU10@@Z PROC ; std::addressof<std::_Container_proxy>, COMDAT
; File C:\Program Files (x86)\Microsoft Visual Studio\2019\Community\VC\Tools\MSVC\14.23.28105\include\xstddef
; Line 279
	push	ebp
	mov	ebp, esp
	push	-1
	push	__ehhandler$??$addressof@U_Container_proxy@std@@@std@@YAPAU_Container_proxy@0@AAU10@@Z
	mov	eax, DWORD PTR fs:0
	push	eax
	sub	esp, 192				; 000000c0H
	push	ebx
	push	esi
	push	edi
	lea	edi, DWORD PTR [ebp-204]
	mov	ecx, 48					; 00000030H
	mov	eax, -858993460				; ccccccccH
	rep stosd
	mov	eax, DWORD PTR ___security_cookie
	xor	eax, ebp
	push	eax
	lea	eax, DWORD PTR __$EHRec$[ebp]
	mov	DWORD PTR fs:0, eax
	mov	ecx, OFFSET __46C44D95_xstddef
	call	@__CheckForDebuggerJustMyCode@4
; Line 280
	mov	eax, DWORD PTR __Val$[ebp]
; Line 281
	mov	ecx, DWORD PTR __$EHRec$[ebp]
	mov	DWORD PTR fs:0, ecx
	pop	ecx
	pop	edi
	pop	esi
	pop	ebx
	add	esp, 204				; 000000ccH
	cmp	ebp, esp
	call	__RTC_CheckEsp
	mov	esp, ebp
	pop	ebp
	ret	0
_TEXT	ENDS
;	COMDAT text$x
text$x	SEGMENT
__ehhandler$??$addressof@U_Container_proxy@std@@@std@@YAPAU_Container_proxy@0@AAU10@@Z:
	mov	edx, DWORD PTR [esp+8]
	lea	eax, DWORD PTR [edx+12]
	mov	ecx, DWORD PTR [edx-208]
	xor	ecx, eax
	call	@__security_check_cookie@4
	mov	eax, OFFSET __ehfuncinfo$??$addressof@U_Container_proxy@std@@@std@@YAPAU_Container_proxy@0@AAU10@@Z
	jmp	___CxxFrameHandler3
text$x	ENDS
??$addressof@U_Container_proxy@std@@@std@@YAPAU_Container_proxy@0@AAU10@@Z ENDP ; std::addressof<std::_Container_proxy>
; Function compile flags: /Odtp /RTCsu /ZI
;	COMDAT ??$_Destroy_range@V?$allocator@H@std@@@std@@YAXPAHQAHAAV?$allocator@H@0@@Z
_TEXT	SEGMENT
__$EHRec$ = -12						; size = 12
__First$ = 8						; size = 4
__Last$ = 12						; size = 4
__Al$ = 16						; size = 4
??$_Destroy_range@V?$allocator@H@std@@@std@@YAXPAHQAHAAV?$allocator@H@0@@Z PROC ; std::_Destroy_range<std::allocator<int> >, COMDAT
; File C:\Program Files (x86)\Microsoft Visual Studio\2019\Community\VC\Tools\MSVC\14.23.28105\include\xmemory
; Line 1027
	push	ebp
	mov	ebp, esp
	push	-1
	push	__ehhandler$??$_Destroy_range@V?$allocator@H@std@@@std@@YAXPAHQAHAAV?$allocator@H@0@@Z
	mov	eax, DWORD PTR fs:0
	push	eax
	sub	esp, 192				; 000000c0H
	push	ebx
	push	esi
	push	edi
	lea	edi, DWORD PTR [ebp-204]
	mov	ecx, 48					; 00000030H
	mov	eax, -858993460				; ccccccccH
	rep stosd
	mov	eax, DWORD PTR ___security_cookie
	xor	eax, ebp
	push	eax
	lea	eax, DWORD PTR __$EHRec$[ebp]
	mov	DWORD PTR fs:0, eax
	mov	ecx, OFFSET __DB4EB944_xmemory
	call	@__CheckForDebuggerJustMyCode@4
; Line 1041
	mov	ecx, DWORD PTR __$EHRec$[ebp]
	mov	DWORD PTR fs:0, ecx
	pop	ecx
	pop	edi
	pop	esi
	pop	ebx
	add	esp, 204				; 000000ccH
	cmp	ebp, esp
	call	__RTC_CheckEsp
	mov	esp, ebp
	pop	ebp
	ret	0
_TEXT	ENDS
;	COMDAT text$x
text$x	SEGMENT
__ehhandler$??$_Destroy_range@V?$allocator@H@std@@@std@@YAXPAHQAHAAV?$allocator@H@0@@Z:
	mov	edx, DWORD PTR [esp+8]
	lea	eax, DWORD PTR [edx+12]
	mov	ecx, DWORD PTR [edx-208]
	xor	ecx, eax
	call	@__security_check_cookie@4
	mov	eax, OFFSET __ehfuncinfo$??$_Destroy_range@V?$allocator@H@std@@@std@@YAXPAHQAHAAV?$allocator@H@0@@Z
	jmp	___CxxFrameHandler3
text$x	ENDS
??$_Destroy_range@V?$allocator@H@std@@@std@@YAXPAHQAHAAV?$allocator@H@0@@Z ENDP ; std::_Destroy_range<std::allocator<int> >
; Function compile flags: /Odtp /RTCsu /ZI
;	COMDAT ??$_Get_size_of_n@$07@std@@YAII@Z
_TEXT	SEGMENT
__Max_possible$1 = -20					; size = 4
__Overflow_is_possible$ = -5				; size = 1
__Count$ = 8						; size = 4
??$_Get_size_of_n@$07@std@@YAII@Z PROC			; std::_Get_size_of_n<8>, COMDAT
; File C:\Program Files (x86)\Microsoft Visual Studio\2019\Community\VC\Tools\MSVC\14.23.28105\include\xmemory
; Line 24
	push	ebp
	mov	ebp, esp
	sub	esp, 216				; 000000d8H
	push	ebx
	push	esi
	push	edi
	lea	edi, DWORD PTR [ebp-216]
	mov	ecx, 54					; 00000036H
	mov	eax, -858993460				; ccccccccH
	rep stosd
	mov	ecx, OFFSET __DB4EB944_xmemory
	call	@__CheckForDebuggerJustMyCode@4
; Line 25
	mov	BYTE PTR __Overflow_is_possible$[ebp], 1
; Line 29
	mov	DWORD PTR __Max_possible$1[ebp], 536870911 ; 1fffffffH
; Line 30
	cmp	DWORD PTR __Count$[ebp], 536870911	; 1fffffffH
	jbe	SHORT $LN2@Get_size_o
; Line 31
	call	?_Throw_bad_array_new_length@std@@YAXXZ	; std::_Throw_bad_array_new_length
$LN2@Get_size_o:
; Line 35
	mov	eax, DWORD PTR __Count$[ebp]
	shl	eax, 3
$LN3@Get_size_o:
; Line 36
	pop	edi
	pop	esi
	pop	ebx
	add	esp, 216				; 000000d8H
	cmp	ebp, esp
	call	__RTC_CheckEsp
	mov	esp, ebp
	pop	ebp
	ret	0
??$_Get_size_of_n@$07@std@@YAII@Z ENDP			; std::_Get_size_of_n<8>
_TEXT	ENDS
; Function compile flags: /Odtp /RTCsu /ZI
;	COMDAT ??$_Deallocate@$07$0A@@std@@YAXPAXI@Z
_TEXT	SEGMENT
__$EHRec$ = -12						; size = 12
__Ptr$ = 8						; size = 4
__Bytes$ = 12						; size = 4
??$_Deallocate@$07$0A@@std@@YAXPAXI@Z PROC		; std::_Deallocate<8,0>, COMDAT
; File C:\Program Files (x86)\Microsoft Visual Studio\2019\Community\VC\Tools\MSVC\14.23.28105\include\xmemory
; Line 183
	push	ebp
	mov	ebp, esp
	push	-1
	push	__ehhandler$??$_Deallocate@$07$0A@@std@@YAXPAXI@Z
	mov	eax, DWORD PTR fs:0
	push	eax
	sub	esp, 192				; 000000c0H
	push	ebx
	push	esi
	push	edi
	lea	edi, DWORD PTR [ebp-204]
	mov	ecx, 48					; 00000030H
	mov	eax, -858993460				; ccccccccH
	rep stosd
	mov	eax, DWORD PTR ___security_cookie
	xor	eax, ebp
	push	eax
	lea	eax, DWORD PTR __$EHRec$[ebp]
	mov	DWORD PTR fs:0, eax
	mov	ecx, OFFSET __DB4EB944_xmemory
	call	@__CheckForDebuggerJustMyCode@4
; Line 186
	cmp	DWORD PTR __Bytes$[ebp], 4096		; 00001000H
	jb	SHORT $LN2@Deallocate
; Line 187
	lea	eax, DWORD PTR __Bytes$[ebp]
	push	eax
	lea	ecx, DWORD PTR __Ptr$[ebp]
	push	ecx
	call	?_Adjust_manually_vector_aligned@std@@YAXAAPAXAAI@Z ; std::_Adjust_manually_vector_aligned
	add	esp, 8
$LN2@Deallocate:
; Line 191
	mov	eax, DWORD PTR __Bytes$[ebp]
	push	eax
	mov	ecx, DWORD PTR __Ptr$[ebp]
	push	ecx
	call	??3@YAXPAXI@Z				; operator delete
	add	esp, 8
; Line 192
	mov	ecx, DWORD PTR __$EHRec$[ebp]
	mov	DWORD PTR fs:0, ecx
	pop	ecx
	pop	edi
	pop	esi
	pop	ebx
	add	esp, 204				; 000000ccH
	cmp	ebp, esp
	call	__RTC_CheckEsp
	mov	esp, ebp
	pop	ebp
	ret	0
_TEXT	ENDS
;	COMDAT text$x
text$x	SEGMENT
__ehhandler$??$_Deallocate@$07$0A@@std@@YAXPAXI@Z:
	mov	edx, DWORD PTR [esp+8]
	lea	eax, DWORD PTR [edx+12]
	mov	ecx, DWORD PTR [edx-208]
	xor	ecx, eax
	call	@__security_check_cookie@4
	mov	eax, OFFSET __ehfuncinfo$??$_Deallocate@$07$0A@@std@@YAXPAXI@Z
	jmp	___CxxFrameHandler3
text$x	ENDS
??$_Deallocate@$07$0A@@std@@YAXPAXI@Z ENDP		; std::_Deallocate<8,0>
; Function compile flags: /Odtp /RTCsu /ZI
;	COMDAT ??$_Allocate@$07U_Default_allocate_traits@std@@$0A@@std@@YAPAXI@Z
_TEXT	SEGMENT
__Bytes$ = 8						; size = 4
??$_Allocate@$07U_Default_allocate_traits@std@@$0A@@std@@YAPAXI@Z PROC ; std::_Allocate<8,std::_Default_allocate_traits,0>, COMDAT
; File C:\Program Files (x86)\Microsoft Visual Studio\2019\Community\VC\Tools\MSVC\14.23.28105\include\xmemory
; Line 167
	push	ebp
	mov	ebp, esp
	sub	esp, 192				; 000000c0H
	push	ebx
	push	esi
	push	edi
	lea	edi, DWORD PTR [ebp-192]
	mov	ecx, 48					; 00000030H
	mov	eax, -858993460				; ccccccccH
	rep stosd
	mov	ecx, OFFSET __DB4EB944_xmemory
	call	@__CheckForDebuggerJustMyCode@4
; Line 170
	cmp	DWORD PTR __Bytes$[ebp], 4096		; 00001000H
	jb	SHORT $LN2@Allocate
; Line 171
	mov	eax, DWORD PTR __Bytes$[ebp]
	push	eax
	call	??$_Allocate_manually_vector_aligned@U_Default_allocate_traits@std@@@std@@YAPAXI@Z ; std::_Allocate_manually_vector_aligned<std::_Default_allocate_traits>
	add	esp, 4
	jmp	SHORT $LN1@Allocate
$LN2@Allocate:
; Line 175
	cmp	DWORD PTR __Bytes$[ebp], 0
	je	SHORT $LN3@Allocate
; Line 176
	mov	eax, DWORD PTR __Bytes$[ebp]
	push	eax
	call	?_Allocate@_Default_allocate_traits@std@@SAPAXI@Z ; std::_Default_allocate_traits::_Allocate
	add	esp, 4
	jmp	SHORT $LN1@Allocate
$LN3@Allocate:
; Line 179
	xor	eax, eax
$LN1@Allocate:
; Line 180
	pop	edi
	pop	esi
	pop	ebx
	add	esp, 192				; 000000c0H
	cmp	ebp, esp
	call	__RTC_CheckEsp
	mov	esp, ebp
	pop	ebp
	ret	0
??$_Allocate@$07U_Default_allocate_traits@std@@$0A@@std@@YAPAXI@Z ENDP ; std::_Allocate<8,std::_Default_allocate_traits,0>
_TEXT	ENDS
; Function compile flags: /Odtp /RTCsu /ZI
;	COMDAT ??$_Unfancy@U_Container_proxy@std@@@std@@YAPAU_Container_proxy@0@PAU10@@Z
_TEXT	SEGMENT
__Ptr$ = 8						; size = 4
??$_Unfancy@U_Container_proxy@std@@@std@@YAPAU_Container_proxy@0@PAU10@@Z PROC ; std::_Unfancy<std::_Container_proxy>, COMDAT
; File C:\Program Files (x86)\Microsoft Visual Studio\2019\Community\VC\Tools\MSVC\14.23.28105\include\xstddef
; Line 293
	push	ebp
	mov	ebp, esp
	sub	esp, 192				; 000000c0H
	push	ebx
	push	esi
	push	edi
	lea	edi, DWORD PTR [ebp-192]
	mov	ecx, 48					; 00000030H
	mov	eax, -858993460				; ccccccccH
	rep stosd
	mov	ecx, OFFSET __46C44D95_xstddef
	call	@__CheckForDebuggerJustMyCode@4
; Line 294
	mov	eax, DWORD PTR __Ptr$[ebp]
; Line 295
	pop	edi
	pop	esi
	pop	ebx
	add	esp, 192				; 000000c0H
	cmp	ebp, esp
	call	__RTC_CheckEsp
	mov	esp, ebp
	pop	ebp
	ret	0
??$_Unfancy@U_Container_proxy@std@@@std@@YAPAU_Container_proxy@0@PAU10@@Z ENDP ; std::_Unfancy<std::_Container_proxy>
_TEXT	ENDS
; Function compile flags: /Odtp /RTCsu /ZI
;	COMDAT ??Bsentry@?$basic_ostream@DU?$char_traits@D@std@@@std@@QBE_NXZ
_TEXT	SEGMENT
_this$ = -8						; size = 4
??Bsentry@?$basic_ostream@DU?$char_traits@D@std@@@std@@QBE_NXZ PROC ; std::basic_ostream<char,std::char_traits<char> >::sentry::operator bool, COMDAT
; _this$ = ecx
; File C:\Program Files (x86)\Microsoft Visual Studio\2019\Community\VC\Tools\MSVC\14.23.28105\include\ostream
; Line 130
	push	ebp
	mov	ebp, esp
	sub	esp, 204				; 000000ccH
	push	ebx
	push	esi
	push	edi
	push	ecx
	lea	edi, DWORD PTR [ebp-204]
	mov	ecx, 51					; 00000033H
	mov	eax, -858993460				; ccccccccH
	rep stosd
	pop	ecx
	mov	DWORD PTR _this$[ebp], ecx
	mov	ecx, OFFSET __63B3912D_ostream
	call	@__CheckForDebuggerJustMyCode@4
; Line 131
	mov	eax, DWORD PTR _this$[ebp]
	mov	al, BYTE PTR [eax+4]
; Line 132
	pop	edi
	pop	esi
	pop	ebx
	add	esp, 204				; 000000ccH
	cmp	ebp, esp
	call	__RTC_CheckEsp
	mov	esp, ebp
	pop	ebp
	ret	0
??Bsentry@?$basic_ostream@DU?$char_traits@D@std@@@std@@QBE_NXZ ENDP ; std::basic_ostream<char,std::char_traits<char> >::sentry::operator bool
_TEXT	ENDS
; Function compile flags: /Odtp /RTCsu /ZI
;	COMDAT ??1sentry@?$basic_ostream@DU?$char_traits@D@std@@@std@@QAE@XZ
_TEXT	SEGMENT
_this$ = -20						; size = 4
__$EHRec$ = -12						; size = 12
??1sentry@?$basic_ostream@DU?$char_traits@D@std@@@std@@QAE@XZ PROC ; std::basic_ostream<char,std::char_traits<char> >::sentry::~sentry, COMDAT
; _this$ = ecx
; File C:\Program Files (x86)\Microsoft Visual Studio\2019\Community\VC\Tools\MSVC\14.23.28105\include\ostream
; Line 115
	push	ebp
	mov	ebp, esp
	push	-1
	push	__ehhandler$??1sentry@?$basic_ostream@DU?$char_traits@D@std@@@std@@QAE@XZ
	mov	eax, DWORD PTR fs:0
	push	eax
	sub	esp, 204				; 000000ccH
	push	ebx
	push	esi
	push	edi
	push	ecx
	lea	edi, DWORD PTR [ebp-216]
	mov	ecx, 51					; 00000033H
	mov	eax, -858993460				; ccccccccH
	rep stosd
	pop	ecx
	mov	eax, DWORD PTR ___security_cookie
	xor	eax, ebp
	push	eax
	lea	eax, DWORD PTR __$EHRec$[ebp]
	mov	DWORD PTR fs:0, eax
	mov	DWORD PTR _this$[ebp], ecx
	mov	ecx, OFFSET __63B3912D_ostream
	call	@__CheckForDebuggerJustMyCode@4
; Line 117
	call	?uncaught_exception@std@@YA_NXZ		; std::uncaught_exception
	movzx	eax, al
	test	eax, eax
	jne	SHORT $LN1@sentry
; Line 118
	mov	esi, esp
	mov	eax, DWORD PTR _this$[ebp]
	mov	ecx, DWORD PTR [eax]
	call	DWORD PTR __imp_?_Osfx@?$basic_ostream@DU?$char_traits@D@std@@@std@@QAEXXZ
	cmp	esi, esp
	call	__RTC_CheckEsp
$LN1@sentry:
; Line 123
	mov	ecx, DWORD PTR _this$[ebp]
	call	??1_Sentry_base@?$basic_ostream@DU?$char_traits@D@std@@@std@@QAE@XZ ; std::basic_ostream<char,std::char_traits<char> >::_Sentry_base::~_Sentry_base
	mov	ecx, DWORD PTR __$EHRec$[ebp]
	mov	DWORD PTR fs:0, ecx
	pop	ecx
	pop	edi
	pop	esi
	pop	ebx
	add	esp, 216				; 000000d8H
	cmp	ebp, esp
	call	__RTC_CheckEsp
	mov	esp, ebp
	pop	ebp
	ret	0
_TEXT	ENDS
;	COMDAT text$x
text$x	SEGMENT
__ehhandler$??1sentry@?$basic_ostream@DU?$char_traits@D@std@@@std@@QAE@XZ:
	mov	edx, DWORD PTR [esp+8]
	lea	eax, DWORD PTR [edx+12]
	mov	ecx, DWORD PTR [edx-220]
	xor	ecx, eax
	call	@__security_check_cookie@4
	mov	eax, OFFSET __ehfuncinfo$??1sentry@?$basic_ostream@DU?$char_traits@D@std@@@std@@QAE@XZ
	jmp	___CxxFrameHandler3
text$x	ENDS
??1sentry@?$basic_ostream@DU?$char_traits@D@std@@@std@@QAE@XZ ENDP ; std::basic_ostream<char,std::char_traits<char> >::sentry::~sentry
; Function compile flags: /Odtp /RTCsu /ZI
;	COMDAT ??0sentry@?$basic_ostream@DU?$char_traits@D@std@@@std@@QAE@AAV12@@Z
_TEXT	SEGMENT
__Tied$ = -32						; size = 4
_this$ = -20						; size = 4
__$EHRec$ = -12						; size = 12
__Ostr$ = 8						; size = 4
??0sentry@?$basic_ostream@DU?$char_traits@D@std@@@std@@QAE@AAV12@@Z PROC ; std::basic_ostream<char,std::char_traits<char> >::sentry::sentry, COMDAT
; _this$ = ecx
; File C:\Program Files (x86)\Microsoft Visual Studio\2019\Community\VC\Tools\MSVC\14.23.28105\include\ostream
; Line 90
	push	ebp
	mov	ebp, esp
	push	-1
	push	__ehhandler$??0sentry@?$basic_ostream@DU?$char_traits@D@std@@@std@@QAE@AAV12@@Z
	mov	eax, DWORD PTR fs:0
	push	eax
	sub	esp, 216				; 000000d8H
	push	ebx
	push	esi
	push	edi
	push	ecx
	lea	edi, DWORD PTR [ebp-228]
	mov	ecx, 54					; 00000036H
	mov	eax, -858993460				; ccccccccH
	rep stosd
	pop	ecx
	mov	eax, DWORD PTR ___security_cookie
	xor	eax, ebp
	push	eax
	lea	eax, DWORD PTR __$EHRec$[ebp]
	mov	DWORD PTR fs:0, eax
	mov	DWORD PTR _this$[ebp], ecx
	mov	ecx, OFFSET __63B3912D_ostream
	call	@__CheckForDebuggerJustMyCode@4
; Line 91
	mov	eax, DWORD PTR __Ostr$[ebp]
	push	eax
	mov	ecx, DWORD PTR _this$[ebp]
	call	??0_Sentry_base@?$basic_ostream@DU?$char_traits@D@std@@@std@@QAE@AAV12@@Z ; std::basic_ostream<char,std::char_traits<char> >::_Sentry_base::_Sentry_base
	mov	DWORD PTR __$EHRec$[ebp+8], 0
; Line 92
	mov	eax, DWORD PTR __Ostr$[ebp]
	mov	ecx, DWORD PTR [eax]
	mov	edx, DWORD PTR __Ostr$[ebp]
	add	edx, DWORD PTR [ecx+4]
	mov	esi, esp
	mov	ecx, edx
	call	DWORD PTR __imp_?good@ios_base@std@@QBE_NXZ
	cmp	esi, esp
	call	__RTC_CheckEsp
	movzx	eax, al
	test	eax, eax
	jne	SHORT $LN2@sentry
; Line 93
	mov	eax, DWORD PTR _this$[ebp]
	mov	BYTE PTR [eax+4], 0
; Line 94
	jmp	SHORT $LN1@sentry
$LN2@sentry:
; Line 97
	mov	eax, DWORD PTR __Ostr$[ebp]
	mov	ecx, DWORD PTR [eax]
	mov	edx, DWORD PTR __Ostr$[ebp]
	add	edx, DWORD PTR [ecx+4]
	mov	esi, esp
	mov	ecx, edx
	call	DWORD PTR __imp_?tie@?$basic_ios@DU?$char_traits@D@std@@@std@@QBEPAV?$basic_ostream@DU?$char_traits@D@std@@@2@XZ
	cmp	esi, esp
	call	__RTC_CheckEsp
	mov	DWORD PTR __Tied$[ebp], eax
; Line 98
	cmp	DWORD PTR __Tied$[ebp], 0
	je	SHORT $LN4@sentry
	mov	eax, DWORD PTR __Tied$[ebp]
	cmp	eax, DWORD PTR __Ostr$[ebp]
	jne	SHORT $LN3@sentry
$LN4@sentry:
; Line 99
	mov	eax, DWORD PTR _this$[ebp]
	mov	BYTE PTR [eax+4], 1
; Line 100
	jmp	SHORT $LN1@sentry
$LN3@sentry:
; Line 104
	mov	esi, esp
	mov	ecx, DWORD PTR __Tied$[ebp]
	call	DWORD PTR __imp_?flush@?$basic_ostream@DU?$char_traits@D@std@@@std@@QAEAAV12@XZ
	cmp	esi, esp
	call	__RTC_CheckEsp
; Line 105
	mov	eax, DWORD PTR __Ostr$[ebp]
	mov	ecx, DWORD PTR [eax]
	mov	edx, DWORD PTR __Ostr$[ebp]
	add	edx, DWORD PTR [ecx+4]
	mov	esi, esp
	mov	ecx, edx
	call	DWORD PTR __imp_?good@ios_base@std@@QBE_NXZ
	cmp	esi, esp
	call	__RTC_CheckEsp
	mov	ecx, DWORD PTR _this$[ebp]
	mov	BYTE PTR [ecx+4], al
$LN1@sentry:
; Line 106
	mov	DWORD PTR __$EHRec$[ebp+8], -1
	mov	eax, DWORD PTR _this$[ebp]
	mov	ecx, DWORD PTR __$EHRec$[ebp]
	mov	DWORD PTR fs:0, ecx
	pop	ecx
	pop	edi
	pop	esi
	pop	ebx
	add	esp, 228				; 000000e4H
	cmp	ebp, esp
	call	__RTC_CheckEsp
	mov	esp, ebp
	pop	ebp
	ret	4
_TEXT	ENDS
;	COMDAT text$x
text$x	SEGMENT
__unwindfunclet$??0sentry@?$basic_ostream@DU?$char_traits@D@std@@@std@@QAE@AAV12@@Z$0:
	mov	ecx, DWORD PTR _this$[ebp]
	jmp	??1_Sentry_base@?$basic_ostream@DU?$char_traits@D@std@@@std@@QAE@XZ ; std::basic_ostream<char,std::char_traits<char> >::_Sentry_base::~_Sentry_base
__ehhandler$??0sentry@?$basic_ostream@DU?$char_traits@D@std@@@std@@QAE@AAV12@@Z:
	mov	edx, DWORD PTR [esp+8]
	lea	eax, DWORD PTR [edx+12]
	mov	ecx, DWORD PTR [edx-232]
	xor	ecx, eax
	call	@__security_check_cookie@4
	mov	eax, OFFSET __ehfuncinfo$??0sentry@?$basic_ostream@DU?$char_traits@D@std@@@std@@QAE@AAV12@@Z
	jmp	___CxxFrameHandler3
text$x	ENDS
??0sentry@?$basic_ostream@DU?$char_traits@D@std@@@std@@QAE@AAV12@@Z ENDP ; std::basic_ostream<char,std::char_traits<char> >::sentry::sentry
; Function compile flags: /Odtp /RTCsu /ZI
;	COMDAT ??1_Sentry_base@?$basic_ostream@DU?$char_traits@D@std@@@std@@QAE@XZ
_TEXT	SEGMENT
tv72 = -232						; size = 4
__Rdbuf$ = -32						; size = 4
_this$ = -20						; size = 4
__$EHRec$ = -12						; size = 12
??1_Sentry_base@?$basic_ostream@DU?$char_traits@D@std@@@std@@QAE@XZ PROC ; std::basic_ostream<char,std::char_traits<char> >::_Sentry_base::~_Sentry_base, COMDAT
; _this$ = ecx
; File C:\Program Files (x86)\Microsoft Visual Studio\2019\Community\VC\Tools\MSVC\14.23.28105\include\ostream
; Line 76
	push	ebp
	mov	ebp, esp
	push	-1
	push	__ehhandler$??1_Sentry_base@?$basic_ostream@DU?$char_traits@D@std@@@std@@QAE@XZ
	mov	eax, DWORD PTR fs:0
	push	eax
	sub	esp, 220				; 000000dcH
	push	ebx
	push	esi
	push	edi
	push	ecx
	lea	edi, DWORD PTR [ebp-232]
	mov	ecx, 55					; 00000037H
	mov	eax, -858993460				; ccccccccH
	rep stosd
	pop	ecx
	mov	eax, DWORD PTR ___security_cookie
	xor	eax, ebp
	push	eax
	lea	eax, DWORD PTR __$EHRec$[ebp]
	mov	DWORD PTR fs:0, eax
	mov	DWORD PTR _this$[ebp], ecx
	mov	ecx, OFFSET __63B3912D_ostream
	call	@__CheckForDebuggerJustMyCode@4
; Line 77
	mov	eax, DWORD PTR _this$[ebp]
	mov	ecx, DWORD PTR [eax]
	mov	DWORD PTR tv72[ebp], ecx
	mov	edx, DWORD PTR tv72[ebp]
	mov	eax, DWORD PTR [edx]
	mov	ecx, DWORD PTR tv72[ebp]
	add	ecx, DWORD PTR [eax+4]
	mov	esi, esp
	call	DWORD PTR __imp_?rdbuf@?$basic_ios@DU?$char_traits@D@std@@@std@@QBEPAV?$basic_streambuf@DU?$char_traits@D@std@@@2@XZ
	cmp	esi, esp
	call	__RTC_CheckEsp
	mov	DWORD PTR __Rdbuf$[ebp], eax
; Line 78
	cmp	DWORD PTR __Rdbuf$[ebp], 0
	je	SHORT $LN3@Sentry_bas
; Line 79
	mov	eax, DWORD PTR __Rdbuf$[ebp]
	mov	edx, DWORD PTR [eax]
	mov	esi, esp
	mov	ecx, DWORD PTR __Rdbuf$[ebp]
	mov	eax, DWORD PTR [edx+8]
	call	eax
	cmp	esi, esp
	call	__RTC_CheckEsp
$LN3@Sentry_bas:
; Line 81
	mov	ecx, DWORD PTR __$EHRec$[ebp]
	mov	DWORD PTR fs:0, ecx
	pop	ecx
	pop	edi
	pop	esi
	pop	ebx
	add	esp, 232				; 000000e8H
	cmp	ebp, esp
	call	__RTC_CheckEsp
	mov	esp, ebp
	pop	ebp
	ret	0
_TEXT	ENDS
;	COMDAT text$x
text$x	SEGMENT
__ehhandler$??1_Sentry_base@?$basic_ostream@DU?$char_traits@D@std@@@std@@QAE@XZ:
	mov	edx, DWORD PTR [esp+8]
	lea	eax, DWORD PTR [edx+12]
	mov	ecx, DWORD PTR [edx-236]
	xor	ecx, eax
	call	@__security_check_cookie@4
	mov	eax, OFFSET __ehfuncinfo$??1_Sentry_base@?$basic_ostream@DU?$char_traits@D@std@@@std@@QAE@XZ
	jmp	___CxxFrameHandler3
text$x	ENDS
??1_Sentry_base@?$basic_ostream@DU?$char_traits@D@std@@@std@@QAE@XZ ENDP ; std::basic_ostream<char,std::char_traits<char> >::_Sentry_base::~_Sentry_base
; Function compile flags: /Odtp /RTCsu /ZI
;	COMDAT ??0_Sentry_base@?$basic_ostream@DU?$char_traits@D@std@@@std@@QAE@AAV12@@Z
_TEXT	SEGMENT
tv73 = -220						; size = 4
__Rdbuf$ = -20						; size = 4
_this$ = -8						; size = 4
__Ostr$ = 8						; size = 4
??0_Sentry_base@?$basic_ostream@DU?$char_traits@D@std@@@std@@QAE@AAV12@@Z PROC ; std::basic_ostream<char,std::char_traits<char> >::_Sentry_base::_Sentry_base, COMDAT
; _this$ = ecx
; File C:\Program Files (x86)\Microsoft Visual Studio\2019\Community\VC\Tools\MSVC\14.23.28105\include\ostream
; Line 69
	push	ebp
	mov	ebp, esp
	sub	esp, 220				; 000000dcH
	push	ebx
	push	esi
	push	edi
	push	ecx
	lea	edi, DWORD PTR [ebp-220]
	mov	ecx, 55					; 00000037H
	mov	eax, -858993460				; ccccccccH
	rep stosd
	pop	ecx
	mov	DWORD PTR _this$[ebp], ecx
	mov	ecx, OFFSET __63B3912D_ostream
	call	@__CheckForDebuggerJustMyCode@4
	mov	eax, DWORD PTR _this$[ebp]
	mov	ecx, DWORD PTR __Ostr$[ebp]
	mov	DWORD PTR [eax], ecx
; Line 70
	mov	eax, DWORD PTR _this$[ebp]
	mov	ecx, DWORD PTR [eax]
	mov	DWORD PTR tv73[ebp], ecx
	mov	edx, DWORD PTR tv73[ebp]
	mov	eax, DWORD PTR [edx]
	mov	ecx, DWORD PTR tv73[ebp]
	add	ecx, DWORD PTR [eax+4]
	mov	esi, esp
	call	DWORD PTR __imp_?rdbuf@?$basic_ios@DU?$char_traits@D@std@@@std@@QBEPAV?$basic_streambuf@DU?$char_traits@D@std@@@2@XZ
	cmp	esi, esp
	call	__RTC_CheckEsp
	mov	DWORD PTR __Rdbuf$[ebp], eax
; Line 71
	cmp	DWORD PTR __Rdbuf$[ebp], 0
	je	SHORT $LN1@Sentry_bas
; Line 72
	mov	eax, DWORD PTR __Rdbuf$[ebp]
	mov	edx, DWORD PTR [eax]
	mov	esi, esp
	mov	ecx, DWORD PTR __Rdbuf$[ebp]
	mov	eax, DWORD PTR [edx+4]
	call	eax
	cmp	esi, esp
	call	__RTC_CheckEsp
$LN1@Sentry_bas:
; Line 74
	mov	eax, DWORD PTR _this$[ebp]
	pop	edi
	pop	esi
	pop	ebx
	add	esp, 220				; 000000dcH
	cmp	ebp, esp
	call	__RTC_CheckEsp
	mov	esp, ebp
	pop	ebp
	ret	4
??0_Sentry_base@?$basic_ostream@DU?$char_traits@D@std@@@std@@QAE@AAV12@@Z ENDP ; std::basic_ostream<char,std::char_traits<char> >::_Sentry_base::_Sentry_base
_TEXT	ENDS
; Function compile flags: /Odtp /RTCsu /ZI
;	COMDAT ??$_Range_construct_or_tidy@PBH@?$vector@HV?$allocator@H@std@@@std@@AAEXPBH0Uforward_iterator_tag@1@@Z
_TEXT	SEGMENT
__My_data$2 = -60					; size = 4
__Guard$3 = -48						; size = 4
__Count$ = -36						; size = 4
_this$ = -24						; size = 4
__$ArrayPad$ = -16					; size = 4
__$EHRec$ = -12						; size = 12
__First$ = 8						; size = 4
__Last$ = 12						; size = 4
___formal$ = 16						; size = 1
??$_Range_construct_or_tidy@PBH@?$vector@HV?$allocator@H@std@@@std@@AAEXPBH0Uforward_iterator_tag@1@@Z PROC ; std::vector<int,std::allocator<int> >::_Range_construct_or_tidy<int const *>, COMDAT
; _this$ = ecx
; File C:\Program Files (x86)\Microsoft Visual Studio\2019\Community\VC\Tools\MSVC\14.23.28105\include\vector
; Line 435
	push	ebp
	mov	ebp, esp
	push	-1
	push	__ehhandler$??$_Range_construct_or_tidy@PBH@?$vector@HV?$allocator@H@std@@@std@@AAEXPBH0Uforward_iterator_tag@1@@Z
	mov	eax, DWORD PTR fs:0
	push	eax
	sub	esp, 244				; 000000f4H
	push	ebx
	push	esi
	push	edi
	push	ecx
	lea	edi, DWORD PTR [ebp-256]
	mov	ecx, 61					; 0000003dH
	mov	eax, -858993460				; ccccccccH
	rep stosd
	pop	ecx
	mov	eax, DWORD PTR ___security_cookie
	xor	eax, ebp
	mov	DWORD PTR __$ArrayPad$[ebp], eax
	push	eax
	lea	eax, DWORD PTR __$EHRec$[ebp]
	mov	DWORD PTR fs:0, eax
	mov	DWORD PTR _this$[ebp], ecx
	mov	ecx, OFFSET __C9967FC1_vector
	call	@__CheckForDebuggerJustMyCode@4
; Line 437
	mov	eax, DWORD PTR __Last$[ebp]
	push	eax
	mov	ecx, DWORD PTR __First$[ebp]
	push	ecx
	call	??$distance@PBH@std@@YAHPBH0@Z		; std::distance<int const *>
	add	esp, 8
	push	eax
	call	??$_Convert_size@I@std@@YAII@Z		; std::_Convert_size<unsigned int>
	add	esp, 4
	mov	DWORD PTR __Count$[ebp], eax
; Line 438
	cmp	DWORD PTR __Count$[ebp], 0
	je	SHORT $LN1@Range_cons
; Line 439
	mov	eax, DWORD PTR __Count$[ebp]
	push	eax
	mov	ecx, DWORD PTR _this$[ebp]
	call	?_Buy_nonzero@?$vector@HV?$allocator@H@std@@@std@@AAEXI@Z ; std::vector<int,std::allocator<int> >::_Buy_nonzero
; Line 440
	mov	eax, DWORD PTR _this$[ebp]
	mov	DWORD PTR __Guard$3[ebp], eax
	mov	DWORD PTR __$EHRec$[ebp+8], 0
; Line 441
	mov	eax, DWORD PTR _this$[ebp]
	mov	DWORD PTR __My_data$2[ebp], eax
; Line 442
	mov	eax, DWORD PTR __My_data$2[ebp]
	mov	ecx, DWORD PTR [eax+4]
	push	ecx
	mov	edx, DWORD PTR __Last$[ebp]
	push	edx
	mov	eax, DWORD PTR __First$[ebp]
	push	eax
	mov	ecx, DWORD PTR _this$[ebp]
	call	??$_Ucopy@PBH@?$vector@HV?$allocator@H@std@@@std@@AAEPAHPBH0PAH@Z ; std::vector<int,std::allocator<int> >::_Ucopy<int const *>
	mov	ecx, DWORD PTR __My_data$2[ebp]
	mov	DWORD PTR [ecx+8], eax
; Line 443
	mov	DWORD PTR __Guard$3[ebp], 0
; Line 444
	mov	DWORD PTR __$EHRec$[ebp+8], -1
	lea	ecx, DWORD PTR __Guard$3[ebp]
	call	??1?$_Tidy_guard@V?$vector@HV?$allocator@H@std@@@std@@@std@@QAE@XZ ; std::_Tidy_guard<std::vector<int,std::allocator<int> > >::~_Tidy_guard<std::vector<int,std::allocator<int> > >
$LN1@Range_cons:
; Line 445
	push	edx
	mov	ecx, ebp
	push	eax
	lea	edx, DWORD PTR $LN8@Range_cons
	call	@_RTC_CheckStackVars@8
	pop	eax
	pop	edx
	mov	ecx, DWORD PTR __$EHRec$[ebp]
	mov	DWORD PTR fs:0, ecx
	pop	ecx
	pop	edi
	pop	esi
	pop	ebx
	mov	ecx, DWORD PTR __$ArrayPad$[ebp]
	xor	ecx, ebp
	call	@__security_check_cookie@4
	add	esp, 256				; 00000100H
	cmp	ebp, esp
	call	__RTC_CheckEsp
	mov	esp, ebp
	pop	ebp
	ret	12					; 0000000cH
	npad	1
$LN8@Range_cons:
	DD	1
	DD	$LN7@Range_cons
$LN7@Range_cons:
	DD	-48					; ffffffd0H
	DD	4
	DD	$LN5@Range_cons
$LN5@Range_cons:
	DB	95					; 0000005fH
	DB	71					; 00000047H
	DB	117					; 00000075H
	DB	97					; 00000061H
	DB	114					; 00000072H
	DB	100					; 00000064H
	DB	0
_TEXT	ENDS
;	COMDAT text$x
text$x	SEGMENT
__unwindfunclet$??$_Range_construct_or_tidy@PBH@?$vector@HV?$allocator@H@std@@@std@@AAEXPBH0Uforward_iterator_tag@1@@Z$0:
	lea	ecx, DWORD PTR __Guard$3[ebp]
	jmp	??1?$_Tidy_guard@V?$vector@HV?$allocator@H@std@@@std@@@std@@QAE@XZ ; std::_Tidy_guard<std::vector<int,std::allocator<int> > >::~_Tidy_guard<std::vector<int,std::allocator<int> > >
__ehhandler$??$_Range_construct_or_tidy@PBH@?$vector@HV?$allocator@H@std@@@std@@AAEXPBH0Uforward_iterator_tag@1@@Z:
	mov	edx, DWORD PTR [esp+8]
	lea	eax, DWORD PTR [edx+12]
	mov	ecx, DWORD PTR [edx-260]
	xor	ecx, eax
	call	@__security_check_cookie@4
	mov	ecx, DWORD PTR [edx-4]
	xor	ecx, eax
	call	@__security_check_cookie@4
	mov	eax, OFFSET __ehfuncinfo$??$_Range_construct_or_tidy@PBH@?$vector@HV?$allocator@H@std@@@std@@AAEXPBH0Uforward_iterator_tag@1@@Z
	jmp	___CxxFrameHandler3
text$x	ENDS
??$_Range_construct_or_tidy@PBH@?$vector@HV?$allocator@H@std@@@std@@AAEXPBH0Uforward_iterator_tag@1@@Z ENDP ; std::vector<int,std::allocator<int> >::_Range_construct_or_tidy<int const *>
; Function compile flags: /Odtp /RTCsu /ZI
;	COMDAT ??1?$_Container_proxy_ptr12@V?$allocator@U_Container_proxy@std@@@std@@@std@@QAE@XZ
_TEXT	SEGMENT
_this$ = -20						; size = 4
__$EHRec$ = -12						; size = 12
??1?$_Container_proxy_ptr12@V?$allocator@U_Container_proxy@std@@@std@@@std@@QAE@XZ PROC ; std::_Container_proxy_ptr12<std::allocator<std::_Container_proxy> >::~_Container_proxy_ptr12<std::allocator<std::_Container_proxy> >, COMDAT
; _this$ = ecx
; File C:\Program Files (x86)\Microsoft Visual Studio\2019\Community\VC\Tools\MSVC\14.23.28105\include\xmemory
; Line 1382
	push	ebp
	mov	ebp, esp
	push	-1
	push	__ehhandler$??1?$_Container_proxy_ptr12@V?$allocator@U_Container_proxy@std@@@std@@@std@@QAE@XZ
	mov	eax, DWORD PTR fs:0
	push	eax
	sub	esp, 204				; 000000ccH
	push	ebx
	push	esi
	push	edi
	push	ecx
	lea	edi, DWORD PTR [ebp-216]
	mov	ecx, 51					; 00000033H
	mov	eax, -858993460				; ccccccccH
	rep stosd
	pop	ecx
	mov	eax, DWORD PTR ___security_cookie
	xor	eax, ebp
	push	eax
	lea	eax, DWORD PTR __$EHRec$[ebp]
	mov	DWORD PTR fs:0, eax
	mov	DWORD PTR _this$[ebp], ecx
	mov	ecx, OFFSET __DB4EB944_xmemory
	call	@__CheckForDebuggerJustMyCode@4
; Line 1383
	mov	eax, DWORD PTR _this$[ebp]
	cmp	DWORD PTR [eax], 0
	je	SHORT $LN3@Container_
; Line 1384
	mov	eax, DWORD PTR _this$[ebp]
	mov	ecx, DWORD PTR [eax]
	push	ecx
	mov	edx, DWORD PTR _this$[ebp]
	mov	eax, DWORD PTR [edx+4]
	push	eax
	call	??$_Delete_plain_internal@V?$allocator@U_Container_proxy@std@@@std@@@std@@YAXAAV?$allocator@U_Container_proxy@std@@@0@QAU_Container_proxy@0@@Z ; std::_Delete_plain_internal<std::allocator<std::_Container_proxy> >
	add	esp, 8
$LN3@Container_:
; Line 1386
	mov	ecx, DWORD PTR __$EHRec$[ebp]
	mov	DWORD PTR fs:0, ecx
	pop	ecx
	pop	edi
	pop	esi
	pop	ebx
	add	esp, 216				; 000000d8H
	cmp	ebp, esp
	call	__RTC_CheckEsp
	mov	esp, ebp
	pop	ebp
	ret	0
_TEXT	ENDS
;	COMDAT text$x
text$x	SEGMENT
__ehhandler$??1?$_Container_proxy_ptr12@V?$allocator@U_Container_proxy@std@@@std@@@std@@QAE@XZ:
	mov	edx, DWORD PTR [esp+8]
	lea	eax, DWORD PTR [edx+12]
	mov	ecx, DWORD PTR [edx-220]
	xor	ecx, eax
	call	@__security_check_cookie@4
	mov	eax, OFFSET __ehfuncinfo$??1?$_Container_proxy_ptr12@V?$allocator@U_Container_proxy@std@@@std@@@std@@QAE@XZ
	jmp	___CxxFrameHandler3
text$x	ENDS
??1?$_Container_proxy_ptr12@V?$allocator@U_Container_proxy@std@@@std@@@std@@QAE@XZ ENDP ; std::_Container_proxy_ptr12<std::allocator<std::_Container_proxy> >::~_Container_proxy_ptr12<std::allocator<std::_Container_proxy> >
; Function compile flags: /Odtp /RTCsu /ZI
;	COMDAT ??0?$_Container_proxy_ptr12@V?$allocator@U_Container_proxy@std@@@std@@@std@@QAE@AAV?$allocator@U_Container_proxy@std@@@1@AAU_Container_base12@1@@Z
_TEXT	SEGMENT
$T1 = -212						; size = 4
_this$ = -8						; size = 4
__Al_$ = 8						; size = 4
__Mycont$ = 12						; size = 4
??0?$_Container_proxy_ptr12@V?$allocator@U_Container_proxy@std@@@std@@@std@@QAE@AAV?$allocator@U_Container_proxy@std@@@1@AAU_Container_base12@1@@Z PROC ; std::_Container_proxy_ptr12<std::allocator<std::_Container_proxy> >::_Container_proxy_ptr12<std::allocator<std::_Container_proxy> >, COMDAT
; _this$ = ecx
; File C:\Program Files (x86)\Microsoft Visual Studio\2019\Community\VC\Tools\MSVC\14.23.28105\include\xmemory
; Line 1368
	push	ebp
	mov	ebp, esp
	sub	esp, 216				; 000000d8H
	push	ebx
	push	esi
	push	edi
	push	ecx
	lea	edi, DWORD PTR [ebp-216]
	mov	ecx, 54					; 00000036H
	mov	eax, -858993460				; ccccccccH
	rep stosd
	pop	ecx
	mov	DWORD PTR _this$[ebp], ecx
	mov	ecx, OFFSET __DB4EB944_xmemory
	call	@__CheckForDebuggerJustMyCode@4
; Line 1369
	mov	eax, DWORD PTR _this$[ebp]
	mov	ecx, DWORD PTR __Al_$[ebp]
	mov	DWORD PTR [eax+4], ecx
; Line 1370
	push	1
	mov	ecx, DWORD PTR __Al_$[ebp]
	call	?allocate@?$allocator@U_Container_proxy@std@@@std@@QAEPAU_Container_proxy@2@I@Z ; std::allocator<std::_Container_proxy>::allocate
	push	eax
	call	??$_Unfancy@U_Container_proxy@std@@@std@@YAPAU_Container_proxy@0@PAU10@@Z ; std::_Unfancy<std::_Container_proxy>
	add	esp, 4
	mov	ecx, DWORD PTR _this$[ebp]
	mov	DWORD PTR [ecx], eax
; Line 1371
	mov	eax, DWORD PTR __Mycont$[ebp]
	push	eax
	call	??$addressof@U_Container_base12@std@@@std@@YAPAU_Container_base12@0@AAU10@@Z ; std::addressof<std::_Container_base12>
	add	esp, 4
	mov	DWORD PTR $T1[ebp], eax
	lea	ecx, DWORD PTR $T1[ebp]
	push	ecx
	mov	edx, DWORD PTR _this$[ebp]
	mov	eax, DWORD PTR [edx]
	push	eax
	call	??$_Construct_in_place@U_Container_proxy@std@@PAU_Container_base12@2@@std@@YAXAAU_Container_proxy@0@$$QAPAU_Container_base12@0@@Z ; std::_Construct_in_place<std::_Container_proxy,std::_Container_base12 *>
	add	esp, 8
; Line 1372
	mov	eax, DWORD PTR __Mycont$[ebp]
	mov	ecx, DWORD PTR _this$[ebp]
	mov	edx, DWORD PTR [ecx]
	mov	DWORD PTR [eax], edx
; Line 1373
	mov	eax, DWORD PTR _this$[ebp]
	pop	edi
	pop	esi
	pop	ebx
	add	esp, 216				; 000000d8H
	cmp	ebp, esp
	call	__RTC_CheckEsp
	mov	esp, ebp
	pop	ebp
	ret	8
??0?$_Container_proxy_ptr12@V?$allocator@U_Container_proxy@std@@@std@@@std@@QAE@AAV?$allocator@U_Container_proxy@std@@@1@AAU_Container_base12@1@@Z ENDP ; std::_Container_proxy_ptr12<std::allocator<std::_Container_proxy> >::_Container_proxy_ptr12<std::allocator<std::_Container_proxy> >
_TEXT	ENDS
; Function compile flags: /Odtp /RTCsu /ZI
;	COMDAT ??$?0ABV?$allocator@H@std@@$$V@?$_Compressed_pair@V?$allocator@H@std@@V?$_Vector_val@U?$_Simple_types@H@std@@@2@$00@std@@QAE@U_One_then_variadic_args_t@1@ABV?$allocator@H@1@@Z
_TEXT	SEGMENT
_this$ = -8						; size = 4
___formal$ = 8						; size = 1
__Val1$ = 12						; size = 4
??$?0ABV?$allocator@H@std@@$$V@?$_Compressed_pair@V?$allocator@H@std@@V?$_Vector_val@U?$_Simple_types@H@std@@@2@$00@std@@QAE@U_One_then_variadic_args_t@1@ABV?$allocator@H@1@@Z PROC ; std::_Compressed_pair<std::allocator<int>,std::_Vector_val<std::_Simple_types<int> >,1>::_Compressed_pair<std::allocator<int>,std::_Vector_val<std::_Simple_types<int> >,1><std::allocator<int> const &>, COMDAT
; _this$ = ecx
; File C:\Program Files (x86)\Microsoft Visual Studio\2019\Community\VC\Tools\MSVC\14.23.28105\include\xmemory
; Line 1418
	push	ebp
	mov	ebp, esp
	sub	esp, 204				; 000000ccH
	push	ebx
	push	esi
	push	edi
	push	ecx
	lea	edi, DWORD PTR [ebp-204]
	mov	ecx, 51					; 00000033H
	mov	eax, -858993460				; ccccccccH
	rep stosd
	pop	ecx
	mov	DWORD PTR _this$[ebp], ecx
	mov	ecx, OFFSET __DB4EB944_xmemory
	call	@__CheckForDebuggerJustMyCode@4
	mov	eax, DWORD PTR __Val1$[ebp]
	push	eax
	call	??$forward@ABV?$allocator@H@std@@@std@@YAABV?$allocator@H@0@ABV10@@Z ; std::forward<std::allocator<int> const &>
	add	esp, 4
	mov	ecx, DWORD PTR _this$[ebp]
	call	??0?$_Vector_val@U?$_Simple_types@H@std@@@std@@QAE@XZ ; std::_Vector_val<std::_Simple_types<int> >::_Vector_val<std::_Simple_types<int> >
	mov	eax, DWORD PTR _this$[ebp]
	pop	edi
	pop	esi
	pop	ebx
	add	esp, 204				; 000000ccH
	cmp	ebp, esp
	call	__RTC_CheckEsp
	mov	esp, ebp
	pop	ebp
	ret	8
??$?0ABV?$allocator@H@std@@$$V@?$_Compressed_pair@V?$allocator@H@std@@V?$_Vector_val@U?$_Simple_types@H@std@@@2@$00@std@@QAE@U_One_then_variadic_args_t@1@ABV?$allocator@H@1@@Z ENDP ; std::_Compressed_pair<std::allocator<int>,std::_Vector_val<std::_Simple_types<int> >,1>::_Compressed_pair<std::allocator<int>,std::_Vector_val<std::_Simple_types<int> >,1><std::allocator<int> const &>
_TEXT	ENDS
; Function compile flags: /Odtp /RTCsu /ZI
;	COMDAT ??$_Delete_plain_internal@V?$allocator@U_Container_proxy@std@@@std@@@std@@YAXAAV?$allocator@U_Container_proxy@std@@@0@QAU_Container_proxy@0@@Z
_TEXT	SEGMENT
__$EHRec$ = -12						; size = 12
__Al$ = 8						; size = 4
__Ptr$ = 12						; size = 4
??$_Delete_plain_internal@V?$allocator@U_Container_proxy@std@@@std@@@std@@YAXAAV?$allocator@U_Container_proxy@std@@@0@QAU_Container_proxy@0@@Z PROC ; std::_Delete_plain_internal<std::allocator<std::_Container_proxy> >, COMDAT
; File C:\Program Files (x86)\Microsoft Visual Studio\2019\Community\VC\Tools\MSVC\14.23.28105\include\xmemory
; Line 1109
	push	ebp
	mov	ebp, esp
	push	-1
	push	__ehhandler$??$_Delete_plain_internal@V?$allocator@U_Container_proxy@std@@@std@@@std@@YAXAAV?$allocator@U_Container_proxy@std@@@0@QAU_Container_proxy@0@@Z
	mov	eax, DWORD PTR fs:0
	push	eax
	sub	esp, 192				; 000000c0H
	push	ebx
	push	esi
	push	edi
	lea	edi, DWORD PTR [ebp-204]
	mov	ecx, 48					; 00000030H
	mov	eax, -858993460				; ccccccccH
	rep stosd
	mov	eax, DWORD PTR ___security_cookie
	xor	eax, ebp
	push	eax
	lea	eax, DWORD PTR __$EHRec$[ebp]
	mov	DWORD PTR fs:0, eax
	mov	ecx, OFFSET __DB4EB944_xmemory
	call	@__CheckForDebuggerJustMyCode@4
; Line 1113
	mov	eax, DWORD PTR __Ptr$[ebp]
	push	eax
	mov	ecx, DWORD PTR __Al$[ebp]
	push	ecx
	call	??$_Deallocate_plain@V?$allocator@U_Container_proxy@std@@@std@@@std@@YAXAAV?$allocator@U_Container_proxy@std@@@0@QAU_Container_proxy@0@@Z ; std::_Deallocate_plain<std::allocator<std::_Container_proxy> >
	add	esp, 8
; Line 1114
	mov	ecx, DWORD PTR __$EHRec$[ebp]
	mov	DWORD PTR fs:0, ecx
	pop	ecx
	pop	edi
	pop	esi
	pop	ebx
	add	esp, 204				; 000000ccH
	cmp	ebp, esp
	call	__RTC_CheckEsp
	mov	esp, ebp
	pop	ebp
	ret	0
_TEXT	ENDS
;	COMDAT text$x
text$x	SEGMENT
__ehhandler$??$_Delete_plain_internal@V?$allocator@U_Container_proxy@std@@@std@@@std@@YAXAAV?$allocator@U_Container_proxy@std@@@0@QAU_Container_proxy@0@@Z:
	mov	edx, DWORD PTR [esp+8]
	lea	eax, DWORD PTR [edx+12]
	mov	ecx, DWORD PTR [edx-208]
	xor	ecx, eax
	call	@__security_check_cookie@4
	mov	eax, OFFSET __ehfuncinfo$??$_Delete_plain_internal@V?$allocator@U_Container_proxy@std@@@std@@@std@@YAXAAV?$allocator@U_Container_proxy@std@@@0@QAU_Container_proxy@0@@Z
	jmp	___CxxFrameHandler3
text$x	ENDS
??$_Delete_plain_internal@V?$allocator@U_Container_proxy@std@@@std@@@std@@YAXAAV?$allocator@U_Container_proxy@std@@@0@QAU_Container_proxy@0@@Z ENDP ; std::_Delete_plain_internal<std::allocator<std::_Container_proxy> >
; Function compile flags: /Odtp /RTCsu /ZI
;	COMDAT ??$exchange@PAU_Container_proxy@std@@$$T@std@@YAPAU_Container_proxy@0@AAPAU10@$$QA$$T@Z
_TEXT	SEGMENT
__Old_val$ = -8						; size = 4
__Val$ = 8						; size = 4
__New_val$ = 12						; size = 4
??$exchange@PAU_Container_proxy@std@@$$T@std@@YAPAU_Container_proxy@0@AAPAU10@$$QA$$T@Z PROC ; std::exchange<std::_Container_proxy *,std::nullptr_t>, COMDAT
; File C:\Program Files (x86)\Microsoft Visual Studio\2019\Community\VC\Tools\MSVC\14.23.28105\include\utility
; Line 526
	push	ebp
	mov	ebp, esp
	sub	esp, 204				; 000000ccH
	push	ebx
	push	esi
	push	edi
	lea	edi, DWORD PTR [ebp-204]
	mov	ecx, 51					; 00000033H
	mov	eax, -858993460				; ccccccccH
	rep stosd
	mov	ecx, OFFSET __B1DBDA87_utility
	call	@__CheckForDebuggerJustMyCode@4
; Line 527
	mov	eax, DWORD PTR __Val$[ebp]
	mov	ecx, DWORD PTR [eax]
	mov	DWORD PTR __Old_val$[ebp], ecx
; Line 528
	mov	eax, DWORD PTR __Val$[ebp]
	mov	ecx, DWORD PTR __New_val$[ebp]
	mov	edx, DWORD PTR [ecx]
	mov	DWORD PTR [eax], edx
; Line 529
	mov	eax, DWORD PTR __Old_val$[ebp]
; Line 530
	pop	edi
	pop	esi
	pop	ebx
	add	esp, 204				; 000000ccH
	cmp	ebp, esp
	call	__RTC_CheckEsp
	mov	esp, ebp
	pop	ebp
	ret	0
??$exchange@PAU_Container_proxy@std@@$$T@std@@YAPAU_Container_proxy@0@AAPAU10@$$QA$$T@Z ENDP ; std::exchange<std::_Container_proxy *,std::nullptr_t>
_TEXT	ENDS
; Function compile flags: /Odtp /RTCsu /ZI
;	COMDAT ??$?0H@?$allocator@U_Container_proxy@std@@@std@@QAE@ABV?$allocator@H@1@@Z
_TEXT	SEGMENT
_this$ = -20						; size = 4
__$EHRec$ = -12						; size = 12
___formal$ = 8						; size = 4
??$?0H@?$allocator@U_Container_proxy@std@@@std@@QAE@ABV?$allocator@H@1@@Z PROC ; std::allocator<std::_Container_proxy>::allocator<std::_Container_proxy><int>, COMDAT
; _this$ = ecx
; File C:\Program Files (x86)\Microsoft Visual Studio\2019\Community\VC\Tools\MSVC\14.23.28105\include\xmemory
; Line 863
	push	ebp
	mov	ebp, esp
	push	-1
	push	__ehhandler$??$?0H@?$allocator@U_Container_proxy@std@@@std@@QAE@ABV?$allocator@H@1@@Z
	mov	eax, DWORD PTR fs:0
	push	eax
	sub	esp, 204				; 000000ccH
	push	ebx
	push	esi
	push	edi
	push	ecx
	lea	edi, DWORD PTR [ebp-216]
	mov	ecx, 51					; 00000033H
	mov	eax, -858993460				; ccccccccH
	rep stosd
	pop	ecx
	mov	eax, DWORD PTR ___security_cookie
	xor	eax, ebp
	push	eax
	lea	eax, DWORD PTR __$EHRec$[ebp]
	mov	DWORD PTR fs:0, eax
	mov	DWORD PTR _this$[ebp], ecx
	mov	ecx, OFFSET __DB4EB944_xmemory
	call	@__CheckForDebuggerJustMyCode@4
	mov	eax, DWORD PTR _this$[ebp]
	mov	ecx, DWORD PTR __$EHRec$[ebp]
	mov	DWORD PTR fs:0, ecx
	pop	ecx
	pop	edi
	pop	esi
	pop	ebx
	add	esp, 216				; 000000d8H
	cmp	ebp, esp
	call	__RTC_CheckEsp
	mov	esp, ebp
	pop	ebp
	ret	4
_TEXT	ENDS
;	COMDAT text$x
text$x	SEGMENT
__ehhandler$??$?0H@?$allocator@U_Container_proxy@std@@@std@@QAE@ABV?$allocator@H@1@@Z:
	mov	edx, DWORD PTR [esp+8]
	lea	eax, DWORD PTR [edx+12]
	mov	ecx, DWORD PTR [edx-220]
	xor	ecx, eax
	call	@__security_check_cookie@4
	mov	eax, OFFSET __ehfuncinfo$??$?0H@?$allocator@U_Container_proxy@std@@@std@@QAE@ABV?$allocator@H@1@@Z
	jmp	___CxxFrameHandler3
text$x	ENDS
??$?0H@?$allocator@U_Container_proxy@std@@@std@@QAE@ABV?$allocator@H@1@@Z ENDP ; std::allocator<std::_Container_proxy>::allocator<std::_Container_proxy><int>
; Function compile flags: /Odtp /RTCsu /ZI
;	COMDAT ?allocate@?$allocator@U_Container_proxy@std@@@std@@QAEPAU_Container_proxy@2@I@Z
_TEXT	SEGMENT
_this$ = -8						; size = 4
__Count$ = 8						; size = 4
?allocate@?$allocator@U_Container_proxy@std@@@std@@QAEPAU_Container_proxy@2@I@Z PROC ; std::allocator<std::_Container_proxy>::allocate, COMDAT
; _this$ = ecx
; File C:\Program Files (x86)\Microsoft Visual Studio\2019\Community\VC\Tools\MSVC\14.23.28105\include\xmemory
; Line 870
	push	ebp
	mov	ebp, esp
	sub	esp, 204				; 000000ccH
	push	ebx
	push	esi
	push	edi
	push	ecx
	lea	edi, DWORD PTR [ebp-204]
	mov	ecx, 51					; 00000033H
	mov	eax, -858993460				; ccccccccH
	rep stosd
	pop	ecx
	mov	DWORD PTR _this$[ebp], ecx
	mov	ecx, OFFSET __DB4EB944_xmemory
	call	@__CheckForDebuggerJustMyCode@4
; Line 871
	mov	eax, DWORD PTR __Count$[ebp]
	push	eax
	call	??$_Get_size_of_n@$07@std@@YAII@Z	; std::_Get_size_of_n<8>
	add	esp, 4
	push	eax
	call	??$_Allocate@$07U_Default_allocate_traits@std@@$0A@@std@@YAPAXI@Z ; std::_Allocate<8,std::_Default_allocate_traits,0>
	add	esp, 4
; Line 872
	pop	edi
	pop	esi
	pop	ebx
	add	esp, 204				; 000000ccH
	cmp	ebp, esp
	call	__RTC_CheckEsp
	mov	esp, ebp
	pop	ebp
	ret	4
?allocate@?$allocator@U_Container_proxy@std@@@std@@QAEPAU_Container_proxy@2@I@Z ENDP ; std::allocator<std::_Container_proxy>::allocate
_TEXT	ENDS
; Function compile flags: /Odtp /RTCsu /ZI
;	COMDAT ??$endl@DU?$char_traits@D@std@@@std@@YAAAV?$basic_ostream@DU?$char_traits@D@std@@@0@AAV10@@Z
_TEXT	SEGMENT
tv79 = -196						; size = 4
__Ostr$ = 8						; size = 4
??$endl@DU?$char_traits@D@std@@@std@@YAAAV?$basic_ostream@DU?$char_traits@D@std@@@0@AAV10@@Z PROC ; std::endl<char,std::char_traits<char> >, COMDAT
; File C:\Program Files (x86)\Microsoft Visual Studio\2019\Community\VC\Tools\MSVC\14.23.28105\include\ostream
; Line 950
	push	ebp
	mov	ebp, esp
	sub	esp, 196				; 000000c4H
	push	ebx
	push	esi
	push	edi
	lea	edi, DWORD PTR [ebp-196]
	mov	ecx, 49					; 00000031H
	mov	eax, -858993460				; ccccccccH
	rep stosd
	mov	ecx, OFFSET __63B3912D_ostream
	call	@__CheckForDebuggerJustMyCode@4
; Line 951
	mov	eax, DWORD PTR __Ostr$[ebp]
	mov	ecx, DWORD PTR [eax]
	mov	edx, DWORD PTR __Ostr$[ebp]
	add	edx, DWORD PTR [ecx+4]
	mov	DWORD PTR tv79[ebp], edx
	mov	esi, esp
	push	10					; 0000000aH
	mov	ecx, DWORD PTR tv79[ebp]
	call	DWORD PTR __imp_?widen@?$basic_ios@DU?$char_traits@D@std@@@std@@QBEDD@Z
	cmp	esi, esp
	call	__RTC_CheckEsp
	mov	esi, esp
	movzx	eax, al
	push	eax
	mov	ecx, DWORD PTR __Ostr$[ebp]
	call	DWORD PTR __imp_?put@?$basic_ostream@DU?$char_traits@D@std@@@std@@QAEAAV12@D@Z
	cmp	esi, esp
	call	__RTC_CheckEsp
; Line 952
	mov	esi, esp
	mov	ecx, DWORD PTR __Ostr$[ebp]
	call	DWORD PTR __imp_?flush@?$basic_ostream@DU?$char_traits@D@std@@@std@@QAEAAV12@XZ
	cmp	esi, esp
	call	__RTC_CheckEsp
; Line 953
	mov	eax, DWORD PTR __Ostr$[ebp]
; Line 954
	pop	edi
	pop	esi
	pop	ebx
	add	esp, 196				; 000000c4H
	cmp	ebp, esp
	call	__RTC_CheckEsp
	mov	esp, ebp
	pop	ebp
	ret	0
??$endl@DU?$char_traits@D@std@@@std@@YAAAV?$basic_ostream@DU?$char_traits@D@std@@@0@AAV10@@Z ENDP ; std::endl<char,std::char_traits<char> >
_TEXT	ENDS
; Function compile flags: /Odtp /RTCsu /ZI
;	COMDAT ??$get@$00HH@std@@YAAAHAAU?$pair@HH@0@@Z
_TEXT	SEGMENT
$T2 = -209						; size = 1
__$EHRec$ = -12						; size = 12
__Pr$ = 8						; size = 4
??$get@$00HH@std@@YAAAHAAU?$pair@HH@0@@Z PROC		; std::get<1,int,int>, COMDAT
; File C:\Program Files (x86)\Microsoft Visual Studio\2019\Community\VC\Tools\MSVC\14.23.28105\include\utility
; Line 454
	push	ebp
	mov	ebp, esp
	push	-1
	push	__ehhandler$??$get@$00HH@std@@YAAAHAAU?$pair@HH@0@@Z
	mov	eax, DWORD PTR fs:0
	push	eax
	sub	esp, 204				; 000000ccH
	push	ebx
	push	esi
	push	edi
	lea	edi, DWORD PTR [ebp-216]
	mov	ecx, 51					; 00000033H
	mov	eax, -858993460				; ccccccccH
	rep stosd
	mov	eax, DWORD PTR ___security_cookie
	xor	eax, ebp
	push	eax
	lea	eax, DWORD PTR __$EHRec$[ebp]
	mov	DWORD PTR fs:0, eax
	mov	ecx, OFFSET __B1DBDA87_utility
	call	@__CheckForDebuggerJustMyCode@4
; Line 456
	movzx	eax, BYTE PTR $T2[ebp]
	push	eax
	mov	ecx, DWORD PTR __Pr$[ebp]
	push	ecx
	call	??$_Pair_get@AAHU?$pair@HH@std@@@std@@YAAAHAAU?$pair@HH@0@U?$integral_constant@I$00@0@@Z ; std::_Pair_get<int &,std::pair<int,int> >
	add	esp, 8
; Line 457
	mov	ecx, DWORD PTR __$EHRec$[ebp]
	mov	DWORD PTR fs:0, ecx
	pop	ecx
	pop	edi
	pop	esi
	pop	ebx
	add	esp, 216				; 000000d8H
	cmp	ebp, esp
	call	__RTC_CheckEsp
	mov	esp, ebp
	pop	ebp
	ret	0
_TEXT	ENDS
;	COMDAT text$x
text$x	SEGMENT
__ehhandler$??$get@$00HH@std@@YAAAHAAU?$pair@HH@0@@Z:
	mov	edx, DWORD PTR [esp+8]
	lea	eax, DWORD PTR [edx+12]
	mov	ecx, DWORD PTR [edx-220]
	xor	ecx, eax
	call	@__security_check_cookie@4
	mov	eax, OFFSET __ehfuncinfo$??$get@$00HH@std@@YAAAHAAU?$pair@HH@0@@Z
	jmp	___CxxFrameHandler3
text$x	ENDS
??$get@$00HH@std@@YAAAHAAU?$pair@HH@0@@Z ENDP		; std::get<1,int,int>
; Function compile flags: /Odtp /RTCsu /ZI
;	COMDAT ??$get@$00HH@std@@YA$$QAH$$QAU?$pair@HH@0@@Z
_TEXT	SEGMENT
__$EHRec$ = -12						; size = 12
__Pr$ = 8						; size = 4
??$get@$00HH@std@@YA$$QAH$$QAU?$pair@HH@0@@Z PROC	; std::get<1,int,int>, COMDAT
; File C:\Program Files (x86)\Microsoft Visual Studio\2019\Community\VC\Tools\MSVC\14.23.28105\include\utility
; Line 490
	push	ebp
	mov	ebp, esp
	push	-1
	push	__ehhandler$??$get@$00HH@std@@YA$$QAH$$QAU?$pair@HH@0@@Z
	mov	eax, DWORD PTR fs:0
	push	eax
	sub	esp, 192				; 000000c0H
	push	ebx
	push	esi
	push	edi
	lea	edi, DWORD PTR [ebp-204]
	mov	ecx, 48					; 00000030H
	mov	eax, -858993460				; ccccccccH
	rep stosd
	mov	eax, DWORD PTR ___security_cookie
	xor	eax, ebp
	push	eax
	lea	eax, DWORD PTR __$EHRec$[ebp]
	mov	DWORD PTR fs:0, eax
	mov	ecx, OFFSET __B1DBDA87_utility
	call	@__CheckForDebuggerJustMyCode@4
; Line 492
	mov	eax, DWORD PTR __Pr$[ebp]
	push	eax
	call	??$get@$00HH@std@@YAAAHAAU?$pair@HH@0@@Z ; std::get<1,int,int>
	add	esp, 4
	push	eax
	call	??$forward@$$QAH@std@@YA$$QAHAAH@Z	; std::forward<int &&>
	add	esp, 4
; Line 493
	mov	ecx, DWORD PTR __$EHRec$[ebp]
	mov	DWORD PTR fs:0, ecx
	pop	ecx
	pop	edi
	pop	esi
	pop	ebx
	add	esp, 204				; 000000ccH
	cmp	ebp, esp
	call	__RTC_CheckEsp
	mov	esp, ebp
	pop	ebp
	ret	0
_TEXT	ENDS
;	COMDAT text$x
text$x	SEGMENT
__ehhandler$??$get@$00HH@std@@YA$$QAH$$QAU?$pair@HH@0@@Z:
	mov	edx, DWORD PTR [esp+8]
	lea	eax, DWORD PTR [edx+12]
	mov	ecx, DWORD PTR [edx-208]
	xor	ecx, eax
	call	@__security_check_cookie@4
	mov	eax, OFFSET __ehfuncinfo$??$get@$00HH@std@@YA$$QAH$$QAU?$pair@HH@0@@Z
	jmp	___CxxFrameHandler3
text$x	ENDS
??$get@$00HH@std@@YA$$QAH$$QAU?$pair@HH@0@@Z ENDP	; std::get<1,int,int>
; Function compile flags: /Odtp /RTCsu /ZI
;	COMDAT ??$get@$0A@HH@std@@YAAAHAAU?$pair@HH@0@@Z
_TEXT	SEGMENT
$T2 = -209						; size = 1
__$EHRec$ = -12						; size = 12
__Pr$ = 8						; size = 4
??$get@$0A@HH@std@@YAAAHAAU?$pair@HH@0@@Z PROC		; std::get<0,int,int>, COMDAT
; File C:\Program Files (x86)\Microsoft Visual Studio\2019\Community\VC\Tools\MSVC\14.23.28105\include\utility
; Line 454
	push	ebp
	mov	ebp, esp
	push	-1
	push	__ehhandler$??$get@$0A@HH@std@@YAAAHAAU?$pair@HH@0@@Z
	mov	eax, DWORD PTR fs:0
	push	eax
	sub	esp, 204				; 000000ccH
	push	ebx
	push	esi
	push	edi
	lea	edi, DWORD PTR [ebp-216]
	mov	ecx, 51					; 00000033H
	mov	eax, -858993460				; ccccccccH
	rep stosd
	mov	eax, DWORD PTR ___security_cookie
	xor	eax, ebp
	push	eax
	lea	eax, DWORD PTR __$EHRec$[ebp]
	mov	DWORD PTR fs:0, eax
	mov	ecx, OFFSET __B1DBDA87_utility
	call	@__CheckForDebuggerJustMyCode@4
; Line 456
	movzx	eax, BYTE PTR $T2[ebp]
	push	eax
	mov	ecx, DWORD PTR __Pr$[ebp]
	push	ecx
	call	??$_Pair_get@AAHU?$pair@HH@std@@@std@@YAAAHAAU?$pair@HH@0@U?$integral_constant@I$0A@@0@@Z ; std::_Pair_get<int &,std::pair<int,int> >
	add	esp, 8
; Line 457
	mov	ecx, DWORD PTR __$EHRec$[ebp]
	mov	DWORD PTR fs:0, ecx
	pop	ecx
	pop	edi
	pop	esi
	pop	ebx
	add	esp, 216				; 000000d8H
	cmp	ebp, esp
	call	__RTC_CheckEsp
	mov	esp, ebp
	pop	ebp
	ret	0
_TEXT	ENDS
;	COMDAT text$x
text$x	SEGMENT
__ehhandler$??$get@$0A@HH@std@@YAAAHAAU?$pair@HH@0@@Z:
	mov	edx, DWORD PTR [esp+8]
	lea	eax, DWORD PTR [edx+12]
	mov	ecx, DWORD PTR [edx-220]
	xor	ecx, eax
	call	@__security_check_cookie@4
	mov	eax, OFFSET __ehfuncinfo$??$get@$0A@HH@std@@YAAAHAAU?$pair@HH@0@@Z
	jmp	___CxxFrameHandler3
text$x	ENDS
??$get@$0A@HH@std@@YAAAHAAU?$pair@HH@0@@Z ENDP		; std::get<0,int,int>
; Function compile flags: /Odtp /RTCsu /ZI
;	COMDAT ??$get@$0A@HH@std@@YA$$QAH$$QAU?$pair@HH@0@@Z
_TEXT	SEGMENT
__$EHRec$ = -12						; size = 12
__Pr$ = 8						; size = 4
??$get@$0A@HH@std@@YA$$QAH$$QAU?$pair@HH@0@@Z PROC	; std::get<0,int,int>, COMDAT
; File C:\Program Files (x86)\Microsoft Visual Studio\2019\Community\VC\Tools\MSVC\14.23.28105\include\utility
; Line 490
	push	ebp
	mov	ebp, esp
	push	-1
	push	__ehhandler$??$get@$0A@HH@std@@YA$$QAH$$QAU?$pair@HH@0@@Z
	mov	eax, DWORD PTR fs:0
	push	eax
	sub	esp, 192				; 000000c0H
	push	ebx
	push	esi
	push	edi
	lea	edi, DWORD PTR [ebp-204]
	mov	ecx, 48					; 00000030H
	mov	eax, -858993460				; ccccccccH
	rep stosd
	mov	eax, DWORD PTR ___security_cookie
	xor	eax, ebp
	push	eax
	lea	eax, DWORD PTR __$EHRec$[ebp]
	mov	DWORD PTR fs:0, eax
	mov	ecx, OFFSET __B1DBDA87_utility
	call	@__CheckForDebuggerJustMyCode@4
; Line 492
	mov	eax, DWORD PTR __Pr$[ebp]
	push	eax
	call	??$get@$0A@HH@std@@YAAAHAAU?$pair@HH@0@@Z ; std::get<0,int,int>
	add	esp, 4
	push	eax
	call	??$forward@$$QAH@std@@YA$$QAHAAH@Z	; std::forward<int &&>
	add	esp, 4
; Line 493
	mov	ecx, DWORD PTR __$EHRec$[ebp]
	mov	DWORD PTR fs:0, ecx
	pop	ecx
	pop	edi
	pop	esi
	pop	ebx
	add	esp, 204				; 000000ccH
	cmp	ebp, esp
	call	__RTC_CheckEsp
	mov	esp, ebp
	pop	ebp
	ret	0
_TEXT	ENDS
;	COMDAT text$x
text$x	SEGMENT
__ehhandler$??$get@$0A@HH@std@@YA$$QAH$$QAU?$pair@HH@0@@Z:
	mov	edx, DWORD PTR [esp+8]
	lea	eax, DWORD PTR [edx+12]
	mov	ecx, DWORD PTR [edx-208]
	xor	ecx, eax
	call	@__security_check_cookie@4
	mov	eax, OFFSET __ehfuncinfo$??$get@$0A@HH@std@@YA$$QAH$$QAU?$pair@HH@0@@Z
	jmp	___CxxFrameHandler3
text$x	ENDS
??$get@$0A@HH@std@@YA$$QAH$$QAU?$pair@HH@0@@Z ENDP	; std::get<0,int,int>
; Function compile flags: /Odtp /RTCsu /ZI
;	COMDAT ??$<move>@AAU?$pair@HH@std@@@@YA$$QAU?$pair@HH@std@@AAU01@@Z
_TEXT	SEGMENT
__Arg$ = 8						; size = 4
??$<move>@AAU?$pair@HH@std@@@@YA$$QAU?$pair@HH@std@@AAU01@@Z PROC ; <move><std::pair<int,int> &>, COMDAT
; File C:\github\JimFawcett\CppStory\Chapter1-overloading\predefined C++ types (compiler internal)
; Line 381
	push	ebp
	mov	ebp, esp
	sub	esp, 192				; 000000c0H
	push	ebx
	push	esi
	push	edi
	lea	edi, DWORD PTR [ebp-192]
	mov	ecx, 48					; 00000030H
	mov	eax, -858993460				; ccccccccH
	rep stosd
	mov	ecx, OFFSET __00AAB962_predefined C++ types (compiler internal)
	call	@__CheckForDebuggerJustMyCode@4
; Line 382
	mov	eax, DWORD PTR __Arg$[ebp]
; Line 383
	pop	edi
	pop	esi
	pop	ebx
	add	esp, 192				; 000000c0H
	cmp	ebp, esp
	call	__RTC_CheckEsp
	mov	esp, ebp
	pop	ebp
	ret	0
??$<move>@AAU?$pair@HH@std@@@@YA$$QAU?$pair@HH@std@@AAU01@@Z ENDP ; <move><std::pair<int,int> &>
_TEXT	ENDS
; Function compile flags: /Odtp /RTCsu /ZI
;	COMDAT ??$get@$00NN@std@@YAAANAAU?$pair@NN@0@@Z
_TEXT	SEGMENT
$T2 = -209						; size = 1
__$EHRec$ = -12						; size = 12
__Pr$ = 8						; size = 4
??$get@$00NN@std@@YAAANAAU?$pair@NN@0@@Z PROC		; std::get<1,double,double>, COMDAT
; File C:\Program Files (x86)\Microsoft Visual Studio\2019\Community\VC\Tools\MSVC\14.23.28105\include\utility
; Line 454
	push	ebp
	mov	ebp, esp
	push	-1
	push	__ehhandler$??$get@$00NN@std@@YAAANAAU?$pair@NN@0@@Z
	mov	eax, DWORD PTR fs:0
	push	eax
	sub	esp, 204				; 000000ccH
	push	ebx
	push	esi
	push	edi
	lea	edi, DWORD PTR [ebp-216]
	mov	ecx, 51					; 00000033H
	mov	eax, -858993460				; ccccccccH
	rep stosd
	mov	eax, DWORD PTR ___security_cookie
	xor	eax, ebp
	push	eax
	lea	eax, DWORD PTR __$EHRec$[ebp]
	mov	DWORD PTR fs:0, eax
	mov	ecx, OFFSET __B1DBDA87_utility
	call	@__CheckForDebuggerJustMyCode@4
; Line 456
	movzx	eax, BYTE PTR $T2[ebp]
	push	eax
	mov	ecx, DWORD PTR __Pr$[ebp]
	push	ecx
	call	??$_Pair_get@AANU?$pair@NN@std@@@std@@YAAANAAU?$pair@NN@0@U?$integral_constant@I$00@0@@Z ; std::_Pair_get<double &,std::pair<double,double> >
	add	esp, 8
; Line 457
	mov	ecx, DWORD PTR __$EHRec$[ebp]
	mov	DWORD PTR fs:0, ecx
	pop	ecx
	pop	edi
	pop	esi
	pop	ebx
	add	esp, 216				; 000000d8H
	cmp	ebp, esp
	call	__RTC_CheckEsp
	mov	esp, ebp
	pop	ebp
	ret	0
_TEXT	ENDS
;	COMDAT text$x
text$x	SEGMENT
__ehhandler$??$get@$00NN@std@@YAAANAAU?$pair@NN@0@@Z:
	mov	edx, DWORD PTR [esp+8]
	lea	eax, DWORD PTR [edx+12]
	mov	ecx, DWORD PTR [edx-220]
	xor	ecx, eax
	call	@__security_check_cookie@4
	mov	eax, OFFSET __ehfuncinfo$??$get@$00NN@std@@YAAANAAU?$pair@NN@0@@Z
	jmp	___CxxFrameHandler3
text$x	ENDS
??$get@$00NN@std@@YAAANAAU?$pair@NN@0@@Z ENDP		; std::get<1,double,double>
; Function compile flags: /Odtp /RTCsu /ZI
;	COMDAT ??$get@$00NN@std@@YA$$QAN$$QAU?$pair@NN@0@@Z
_TEXT	SEGMENT
__$EHRec$ = -12						; size = 12
__Pr$ = 8						; size = 4
??$get@$00NN@std@@YA$$QAN$$QAU?$pair@NN@0@@Z PROC	; std::get<1,double,double>, COMDAT
; File C:\Program Files (x86)\Microsoft Visual Studio\2019\Community\VC\Tools\MSVC\14.23.28105\include\utility
; Line 490
	push	ebp
	mov	ebp, esp
	push	-1
	push	__ehhandler$??$get@$00NN@std@@YA$$QAN$$QAU?$pair@NN@0@@Z
	mov	eax, DWORD PTR fs:0
	push	eax
	sub	esp, 192				; 000000c0H
	push	ebx
	push	esi
	push	edi
	lea	edi, DWORD PTR [ebp-204]
	mov	ecx, 48					; 00000030H
	mov	eax, -858993460				; ccccccccH
	rep stosd
	mov	eax, DWORD PTR ___security_cookie
	xor	eax, ebp
	push	eax
	lea	eax, DWORD PTR __$EHRec$[ebp]
	mov	DWORD PTR fs:0, eax
	mov	ecx, OFFSET __B1DBDA87_utility
	call	@__CheckForDebuggerJustMyCode@4
; Line 492
	mov	eax, DWORD PTR __Pr$[ebp]
	push	eax
	call	??$get@$00NN@std@@YAAANAAU?$pair@NN@0@@Z ; std::get<1,double,double>
	add	esp, 4
	push	eax
	call	??$forward@$$QAN@std@@YA$$QANAAN@Z	; std::forward<double &&>
	add	esp, 4
; Line 493
	mov	ecx, DWORD PTR __$EHRec$[ebp]
	mov	DWORD PTR fs:0, ecx
	pop	ecx
	pop	edi
	pop	esi
	pop	ebx
	add	esp, 204				; 000000ccH
	cmp	ebp, esp
	call	__RTC_CheckEsp
	mov	esp, ebp
	pop	ebp
	ret	0
_TEXT	ENDS
;	COMDAT text$x
text$x	SEGMENT
__ehhandler$??$get@$00NN@std@@YA$$QAN$$QAU?$pair@NN@0@@Z:
	mov	edx, DWORD PTR [esp+8]
	lea	eax, DWORD PTR [edx+12]
	mov	ecx, DWORD PTR [edx-208]
	xor	ecx, eax
	call	@__security_check_cookie@4
	mov	eax, OFFSET __ehfuncinfo$??$get@$00NN@std@@YA$$QAN$$QAU?$pair@NN@0@@Z
	jmp	___CxxFrameHandler3
text$x	ENDS
??$get@$00NN@std@@YA$$QAN$$QAU?$pair@NN@0@@Z ENDP	; std::get<1,double,double>
; Function compile flags: /Odtp /RTCsu /ZI
;	COMDAT ??$get@$0A@NN@std@@YAAANAAU?$pair@NN@0@@Z
_TEXT	SEGMENT
$T2 = -209						; size = 1
__$EHRec$ = -12						; size = 12
__Pr$ = 8						; size = 4
??$get@$0A@NN@std@@YAAANAAU?$pair@NN@0@@Z PROC		; std::get<0,double,double>, COMDAT
; File C:\Program Files (x86)\Microsoft Visual Studio\2019\Community\VC\Tools\MSVC\14.23.28105\include\utility
; Line 454
	push	ebp
	mov	ebp, esp
	push	-1
	push	__ehhandler$??$get@$0A@NN@std@@YAAANAAU?$pair@NN@0@@Z
	mov	eax, DWORD PTR fs:0
	push	eax
	sub	esp, 204				; 000000ccH
	push	ebx
	push	esi
	push	edi
	lea	edi, DWORD PTR [ebp-216]
	mov	ecx, 51					; 00000033H
	mov	eax, -858993460				; ccccccccH
	rep stosd
	mov	eax, DWORD PTR ___security_cookie
	xor	eax, ebp
	push	eax
	lea	eax, DWORD PTR __$EHRec$[ebp]
	mov	DWORD PTR fs:0, eax
	mov	ecx, OFFSET __B1DBDA87_utility
	call	@__CheckForDebuggerJustMyCode@4
; Line 456
	movzx	eax, BYTE PTR $T2[ebp]
	push	eax
	mov	ecx, DWORD PTR __Pr$[ebp]
	push	ecx
	call	??$_Pair_get@AANU?$pair@NN@std@@@std@@YAAANAAU?$pair@NN@0@U?$integral_constant@I$0A@@0@@Z ; std::_Pair_get<double &,std::pair<double,double> >
	add	esp, 8
; Line 457
	mov	ecx, DWORD PTR __$EHRec$[ebp]
	mov	DWORD PTR fs:0, ecx
	pop	ecx
	pop	edi
	pop	esi
	pop	ebx
	add	esp, 216				; 000000d8H
	cmp	ebp, esp
	call	__RTC_CheckEsp
	mov	esp, ebp
	pop	ebp
	ret	0
_TEXT	ENDS
;	COMDAT text$x
text$x	SEGMENT
__ehhandler$??$get@$0A@NN@std@@YAAANAAU?$pair@NN@0@@Z:
	mov	edx, DWORD PTR [esp+8]
	lea	eax, DWORD PTR [edx+12]
	mov	ecx, DWORD PTR [edx-220]
	xor	ecx, eax
	call	@__security_check_cookie@4
	mov	eax, OFFSET __ehfuncinfo$??$get@$0A@NN@std@@YAAANAAU?$pair@NN@0@@Z
	jmp	___CxxFrameHandler3
text$x	ENDS
??$get@$0A@NN@std@@YAAANAAU?$pair@NN@0@@Z ENDP		; std::get<0,double,double>
; Function compile flags: /Odtp /RTCsu /ZI
;	COMDAT ??$get@$0A@NN@std@@YA$$QAN$$QAU?$pair@NN@0@@Z
_TEXT	SEGMENT
__$EHRec$ = -12						; size = 12
__Pr$ = 8						; size = 4
??$get@$0A@NN@std@@YA$$QAN$$QAU?$pair@NN@0@@Z PROC	; std::get<0,double,double>, COMDAT
; File C:\Program Files (x86)\Microsoft Visual Studio\2019\Community\VC\Tools\MSVC\14.23.28105\include\utility
; Line 490
	push	ebp
	mov	ebp, esp
	push	-1
	push	__ehhandler$??$get@$0A@NN@std@@YA$$QAN$$QAU?$pair@NN@0@@Z
	mov	eax, DWORD PTR fs:0
	push	eax
	sub	esp, 192				; 000000c0H
	push	ebx
	push	esi
	push	edi
	lea	edi, DWORD PTR [ebp-204]
	mov	ecx, 48					; 00000030H
	mov	eax, -858993460				; ccccccccH
	rep stosd
	mov	eax, DWORD PTR ___security_cookie
	xor	eax, ebp
	push	eax
	lea	eax, DWORD PTR __$EHRec$[ebp]
	mov	DWORD PTR fs:0, eax
	mov	ecx, OFFSET __B1DBDA87_utility
	call	@__CheckForDebuggerJustMyCode@4
; Line 492
	mov	eax, DWORD PTR __Pr$[ebp]
	push	eax
	call	??$get@$0A@NN@std@@YAAANAAU?$pair@NN@0@@Z ; std::get<0,double,double>
	add	esp, 4
	push	eax
	call	??$forward@$$QAN@std@@YA$$QANAAN@Z	; std::forward<double &&>
	add	esp, 4
; Line 493
	mov	ecx, DWORD PTR __$EHRec$[ebp]
	mov	DWORD PTR fs:0, ecx
	pop	ecx
	pop	edi
	pop	esi
	pop	ebx
	add	esp, 204				; 000000ccH
	cmp	ebp, esp
	call	__RTC_CheckEsp
	mov	esp, ebp
	pop	ebp
	ret	0
_TEXT	ENDS
;	COMDAT text$x
text$x	SEGMENT
__ehhandler$??$get@$0A@NN@std@@YA$$QAN$$QAU?$pair@NN@0@@Z:
	mov	edx, DWORD PTR [esp+8]
	lea	eax, DWORD PTR [edx+12]
	mov	ecx, DWORD PTR [edx-208]
	xor	ecx, eax
	call	@__security_check_cookie@4
	mov	eax, OFFSET __ehfuncinfo$??$get@$0A@NN@std@@YA$$QAN$$QAU?$pair@NN@0@@Z
	jmp	___CxxFrameHandler3
text$x	ENDS
??$get@$0A@NN@std@@YA$$QAN$$QAU?$pair@NN@0@@Z ENDP	; std::get<0,double,double>
; Function compile flags: /Odtp /RTCsu /ZI
;	COMDAT ??$<move>@AAU?$pair@NN@std@@@@YA$$QAU?$pair@NN@std@@AAU01@@Z
_TEXT	SEGMENT
__Arg$ = 8						; size = 4
??$<move>@AAU?$pair@NN@std@@@@YA$$QAU?$pair@NN@std@@AAU01@@Z PROC ; <move><std::pair<double,double> &>, COMDAT
; File C:\github\JimFawcett\CppStory\Chapter1-overloading\predefined C++ types (compiler internal)
; Line 381
	push	ebp
	mov	ebp, esp
	sub	esp, 192				; 000000c0H
	push	ebx
	push	esi
	push	edi
	lea	edi, DWORD PTR [ebp-192]
	mov	ecx, 48					; 00000030H
	mov	eax, -858993460				; ccccccccH
	rep stosd
	mov	ecx, OFFSET __00AAB962_predefined C++ types (compiler internal)
	call	@__CheckForDebuggerJustMyCode@4
; Line 382
	mov	eax, DWORD PTR __Arg$[ebp]
; Line 383
	pop	edi
	pop	esi
	pop	ebx
	add	esp, 192				; 000000c0H
	cmp	ebp, esp
	call	__RTC_CheckEsp
	mov	esp, ebp
	pop	ebp
	ret	0
??$<move>@AAU?$pair@NN@std@@@@YA$$QAU?$pair@NN@std@@AAU01@@Z ENDP ; <move><std::pair<double,double> &>
_TEXT	ENDS
; Function compile flags: /Odtp /RTCsu /ZI
;	COMDAT ?end@?$initializer_list@H@std@@QBEPBHXZ
_TEXT	SEGMENT
_this$ = -20						; size = 4
__$EHRec$ = -12						; size = 12
?end@?$initializer_list@H@std@@QBEPBHXZ PROC		; std::initializer_list<int>::end, COMDAT
; _this$ = ecx
; File C:\Program Files (x86)\Microsoft Visual Studio\2019\Community\VC\Tools\MSVC\14.23.28105\include\initializer_list
; Line 38
	push	ebp
	mov	ebp, esp
	push	-1
	push	__ehhandler$?end@?$initializer_list@H@std@@QBEPBHXZ
	mov	eax, DWORD PTR fs:0
	push	eax
	sub	esp, 204				; 000000ccH
	push	ebx
	push	esi
	push	edi
	push	ecx
	lea	edi, DWORD PTR [ebp-216]
	mov	ecx, 51					; 00000033H
	mov	eax, -858993460				; ccccccccH
	rep stosd
	pop	ecx
	mov	eax, DWORD PTR ___security_cookie
	xor	eax, ebp
	push	eax
	lea	eax, DWORD PTR __$EHRec$[ebp]
	mov	DWORD PTR fs:0, eax
	mov	DWORD PTR _this$[ebp], ecx
	mov	ecx, OFFSET __F20AC291_initializer_list
	call	@__CheckForDebuggerJustMyCode@4
; Line 39
	mov	eax, DWORD PTR _this$[ebp]
	mov	eax, DWORD PTR [eax+4]
; Line 40
	mov	ecx, DWORD PTR __$EHRec$[ebp]
	mov	DWORD PTR fs:0, ecx
	pop	ecx
	pop	edi
	pop	esi
	pop	ebx
	add	esp, 216				; 000000d8H
	cmp	ebp, esp
	call	__RTC_CheckEsp
	mov	esp, ebp
	pop	ebp
	ret	0
_TEXT	ENDS
;	COMDAT text$x
text$x	SEGMENT
__ehhandler$?end@?$initializer_list@H@std@@QBEPBHXZ:
	mov	edx, DWORD PTR [esp+8]
	lea	eax, DWORD PTR [edx+12]
	mov	ecx, DWORD PTR [edx-220]
	xor	ecx, eax
	call	@__security_check_cookie@4
	mov	eax, OFFSET __ehfuncinfo$?end@?$initializer_list@H@std@@QBEPBHXZ
	jmp	___CxxFrameHandler3
text$x	ENDS
?end@?$initializer_list@H@std@@QBEPBHXZ ENDP		; std::initializer_list<int>::end
; Function compile flags: /Odtp /RTCsu /ZI
;	COMDAT ?begin@?$initializer_list@H@std@@QBEPBHXZ
_TEXT	SEGMENT
_this$ = -20						; size = 4
__$EHRec$ = -12						; size = 12
?begin@?$initializer_list@H@std@@QBEPBHXZ PROC		; std::initializer_list<int>::begin, COMDAT
; _this$ = ecx
; File C:\Program Files (x86)\Microsoft Visual Studio\2019\Community\VC\Tools\MSVC\14.23.28105\include\initializer_list
; Line 34
	push	ebp
	mov	ebp, esp
	push	-1
	push	__ehhandler$?begin@?$initializer_list@H@std@@QBEPBHXZ
	mov	eax, DWORD PTR fs:0
	push	eax
	sub	esp, 204				; 000000ccH
	push	ebx
	push	esi
	push	edi
	push	ecx
	lea	edi, DWORD PTR [ebp-216]
	mov	ecx, 51					; 00000033H
	mov	eax, -858993460				; ccccccccH
	rep stosd
	pop	ecx
	mov	eax, DWORD PTR ___security_cookie
	xor	eax, ebp
	push	eax
	lea	eax, DWORD PTR __$EHRec$[ebp]
	mov	DWORD PTR fs:0, eax
	mov	DWORD PTR _this$[ebp], ecx
	mov	ecx, OFFSET __F20AC291_initializer_list
	call	@__CheckForDebuggerJustMyCode@4
; Line 35
	mov	eax, DWORD PTR _this$[ebp]
	mov	eax, DWORD PTR [eax]
; Line 36
	mov	ecx, DWORD PTR __$EHRec$[ebp]
	mov	DWORD PTR fs:0, ecx
	pop	ecx
	pop	edi
	pop	esi
	pop	ebx
	add	esp, 216				; 000000d8H
	cmp	ebp, esp
	call	__RTC_CheckEsp
	mov	esp, ebp
	pop	ebp
	ret	0
_TEXT	ENDS
;	COMDAT text$x
text$x	SEGMENT
__ehhandler$?begin@?$initializer_list@H@std@@QBEPBHXZ:
	mov	edx, DWORD PTR [esp+8]
	lea	eax, DWORD PTR [edx+12]
	mov	ecx, DWORD PTR [edx-220]
	xor	ecx, eax
	call	@__security_check_cookie@4
	mov	eax, OFFSET __ehfuncinfo$?begin@?$initializer_list@H@std@@QBEPBHXZ
	jmp	___CxxFrameHandler3
text$x	ENDS
?begin@?$initializer_list@H@std@@QBEPBHXZ ENDP		; std::initializer_list<int>::begin
; Function compile flags: /Odtp /RTCsu /ZI
;	COMDAT ??0?$initializer_list@H@std@@QAE@PBH0@Z
_TEXT	SEGMENT
_this$ = -20						; size = 4
__$EHRec$ = -12						; size = 12
__First_arg$ = 8					; size = 4
__Last_arg$ = 12					; size = 4
??0?$initializer_list@H@std@@QAE@PBH0@Z PROC		; std::initializer_list<int>::initializer_list<int>, COMDAT
; _this$ = ecx
; File C:\Program Files (x86)\Microsoft Visual Studio\2019\Community\VC\Tools\MSVC\14.23.28105\include\initializer_list
; Line 32
	push	ebp
	mov	ebp, esp
	push	-1
	push	__ehhandler$??0?$initializer_list@H@std@@QAE@PBH0@Z
	mov	eax, DWORD PTR fs:0
	push	eax
	sub	esp, 204				; 000000ccH
	push	ebx
	push	esi
	push	edi
	push	ecx
	lea	edi, DWORD PTR [ebp-216]
	mov	ecx, 51					; 00000033H
	mov	eax, -858993460				; ccccccccH
	rep stosd
	pop	ecx
	mov	eax, DWORD PTR ___security_cookie
	xor	eax, ebp
	push	eax
	lea	eax, DWORD PTR __$EHRec$[ebp]
	mov	DWORD PTR fs:0, eax
	mov	DWORD PTR _this$[ebp], ecx
	mov	ecx, OFFSET __F20AC291_initializer_list
	call	@__CheckForDebuggerJustMyCode@4
	mov	eax, DWORD PTR _this$[ebp]
	mov	ecx, DWORD PTR __First_arg$[ebp]
	mov	DWORD PTR [eax], ecx
	mov	eax, DWORD PTR _this$[ebp]
	mov	ecx, DWORD PTR __Last_arg$[ebp]
	mov	DWORD PTR [eax+4], ecx
	mov	eax, DWORD PTR _this$[ebp]
	mov	ecx, DWORD PTR __$EHRec$[ebp]
	mov	DWORD PTR fs:0, ecx
	pop	ecx
	pop	edi
	pop	esi
	pop	ebx
	add	esp, 216				; 000000d8H
	cmp	ebp, esp
	call	__RTC_CheckEsp
	mov	esp, ebp
	pop	ebp
	ret	8
_TEXT	ENDS
;	COMDAT text$x
text$x	SEGMENT
__ehhandler$??0?$initializer_list@H@std@@QAE@PBH0@Z:
	mov	edx, DWORD PTR [esp+8]
	lea	eax, DWORD PTR [edx+12]
	mov	ecx, DWORD PTR [edx-220]
	xor	ecx, eax
	call	@__security_check_cookie@4
	mov	eax, OFFSET __ehfuncinfo$??0?$initializer_list@H@std@@QAE@PBH0@Z
	jmp	___CxxFrameHandler3
text$x	ENDS
??0?$initializer_list@H@std@@QAE@PBH0@Z ENDP		; std::initializer_list<int>::initializer_list<int>
; Function compile flags: /Odtp /RTCsu /ZI
;	COMDAT ??$?6U?$char_traits@D@std@@@std@@YAAAV?$basic_ostream@DU?$char_traits@D@std@@@0@AAV10@PBD@Z
_TEXT	SEGMENT
tv135 = -356						; size = 8
tv359 = -348						; size = 8
tv307 = -348						; size = 4
tv304 = -348						; size = 8
tv302 = -348						; size = 4
tv246 = -342						; size = 1
tv187 = -342						; size = 1
tv306 = -341						; size = 1
tv301 = -341						; size = 1
tv345 = -340						; size = 8
tv248 = -340						; size = 4
tv213 = -340						; size = 4
tv189 = -340						; size = 4
tv305 = -336						; size = 4
tv303 = -336						; size = 4
tv300 = -336						; size = 4
tv295 = -336						; size = 4
tv281 = -336						; size = 4
tv268 = -336						; size = 4
tv137 = -336						; size = 4
$T2 = -328						; size = 4
$T3 = -316						; size = 4
$T4 = -304						; size = 4
$T5 = -292						; size = 4
$T6 = -280						; size = 4
__Ok$ = -76						; size = 8
__Pad$ = -60						; size = 8
__Count$ = -44						; size = 8
__State$ = -28						; size = 4
__$ArrayPad$ = -20					; size = 4
__$EHRec$ = -16						; size = 16
__Ostr$ = 8						; size = 4
__Val$ = 12						; size = 4
??$?6U?$char_traits@D@std@@@std@@YAAAV?$basic_ostream@DU?$char_traits@D@std@@@0@AAV10@PBD@Z PROC ; std::operator<<<std::char_traits<char> >, COMDAT
; File C:\Program Files (x86)\Microsoft Visual Studio\2019\Community\VC\Tools\MSVC\14.23.28105\include\ostream
; Line 738
	push	ebp
	mov	ebp, esp
	push	-1
	push	__ehhandler$??$?6U?$char_traits@D@std@@@std@@YAAAV?$basic_ostream@DU?$char_traits@D@std@@@0@AAV10@PBD@Z
	mov	eax, DWORD PTR fs:0
	push	eax
	push	ecx
	sub	esp, 340				; 00000154H
	push	ebx
	push	esi
	push	edi
	lea	edi, DWORD PTR [ebp-356]
	mov	ecx, 85					; 00000055H
	mov	eax, -858993460				; ccccccccH
	rep stosd
	mov	eax, DWORD PTR ___security_cookie
	xor	eax, ebp
	mov	DWORD PTR __$ArrayPad$[ebp], eax
	push	eax
	lea	eax, DWORD PTR __$EHRec$[ebp+4]
	mov	DWORD PTR fs:0, eax
	mov	DWORD PTR __$EHRec$[ebp], esp
	mov	ecx, OFFSET __63B3912D_ostream
	call	@__CheckForDebuggerJustMyCode@4
; Line 742
	mov	DWORD PTR __State$[ebp], 0
; Line 743
	mov	eax, DWORD PTR __Val$[ebp]
	push	eax
	call	?length@?$_Narrow_char_traits@DH@std@@SAIQBD@Z ; std::_Narrow_char_traits<char,int>::length
	add	esp, 4
	xor	ecx, ecx
	mov	DWORD PTR __Count$[ebp], eax
	mov	DWORD PTR __Count$[ebp+4], ecx
; Line 744
	mov	eax, DWORD PTR __Ostr$[ebp]
	mov	ecx, DWORD PTR [eax]
	mov	edx, DWORD PTR __Ostr$[ebp]
	add	edx, DWORD PTR [ecx+4]
	mov	esi, esp
	mov	ecx, edx
	call	DWORD PTR __imp_?width@ios_base@std@@QBE_JXZ
	cmp	esi, esp
	call	__RTC_CheckEsp
	mov	DWORD PTR tv345[ebp], eax
	mov	DWORD PTR tv345[ebp+4], edx
	cmp	DWORD PTR tv345[ebp+4], 0
	jl	SHORT $LN17@operator
	jg	SHORT $LN24@operator
	cmp	DWORD PTR tv345[ebp], 0
	jbe	SHORT $LN17@operator
$LN24@operator:
	mov	eax, DWORD PTR __Ostr$[ebp]
	mov	ecx, DWORD PTR [eax]
	mov	edx, DWORD PTR __Ostr$[ebp]
	add	edx, DWORD PTR [ecx+4]
	mov	esi, esp
	mov	ecx, edx
	call	DWORD PTR __imp_?width@ios_base@std@@QBE_JXZ
	cmp	esi, esp
	call	__RTC_CheckEsp
	mov	DWORD PTR tv359[ebp], eax
	mov	DWORD PTR tv359[ebp+4], edx
	mov	eax, DWORD PTR tv359[ebp+4]
	cmp	eax, DWORD PTR __Count$[ebp+4]
	jl	SHORT $LN17@operator
	jg	SHORT $LN25@operator
	mov	ecx, DWORD PTR tv359[ebp]
	cmp	ecx, DWORD PTR __Count$[ebp]
	jbe	SHORT $LN17@operator
$LN25@operator:
	mov	edx, DWORD PTR __Ostr$[ebp]
	mov	eax, DWORD PTR [edx]
	mov	ecx, DWORD PTR __Ostr$[ebp]
	add	ecx, DWORD PTR [eax+4]
	mov	esi, esp
	call	DWORD PTR __imp_?width@ios_base@std@@QBE_JXZ
	cmp	esi, esp
	call	__RTC_CheckEsp
	sub	eax, DWORD PTR __Count$[ebp]
	sbb	edx, DWORD PTR __Count$[ebp+4]
	mov	DWORD PTR tv135[ebp], eax
	mov	DWORD PTR tv135[ebp+4], edx
	jmp	SHORT $LN18@operator
$LN17@operator:
	xorps	xmm0, xmm0
	movlpd	QWORD PTR tv135[ebp], xmm0
$LN18@operator:
	mov	ecx, DWORD PTR tv135[ebp]
	mov	DWORD PTR __Pad$[ebp], ecx
	mov	edx, DWORD PTR tv135[ebp+4]
	mov	DWORD PTR __Pad$[ebp+4], edx
; Line 745
	mov	eax, DWORD PTR __Ostr$[ebp]
	push	eax
	lea	ecx, DWORD PTR __Ok$[ebp]
	call	??0sentry@?$basic_ostream@DU?$char_traits@D@std@@@std@@QAE@AAV12@@Z ; std::basic_ostream<char,std::char_traits<char> >::sentry::sentry
	mov	DWORD PTR __$EHRec$[ebp+12], 0
; Line 747
	lea	ecx, DWORD PTR __Ok$[ebp]
	call	??Bsentry@?$basic_ostream@DU?$char_traits@D@std@@@std@@QBE_NXZ ; std::basic_ostream<char,std::char_traits<char> >::sentry::operator bool
	movzx	eax, al
	test	eax, eax
	jne	SHORT $LN8@operator
; Line 748
	mov	eax, DWORD PTR __State$[ebp]
	or	eax, 4
	mov	DWORD PTR __State$[ebp], eax
; Line 749
	jmp	$LN9@operator
$LN8@operator:
; Line 750
	mov	BYTE PTR __$EHRec$[ebp+12], 1
; Line 751
	mov	eax, DWORD PTR __Ostr$[ebp]
	mov	ecx, DWORD PTR [eax]
	mov	edx, DWORD PTR __Ostr$[ebp]
	add	edx, DWORD PTR [ecx+4]
	mov	esi, esp
	mov	ecx, edx
	call	DWORD PTR __imp_?flags@ios_base@std@@QBEHXZ
	cmp	esi, esp
	call	__RTC_CheckEsp
	mov	DWORD PTR tv137[ebp], eax
	mov	eax, DWORD PTR tv137[ebp]
	and	eax, 448				; 000001c0H
	cmp	eax, 64					; 00000040H
	je	$LN11@operator
; Line 752
	jmp	SHORT $LN4@operator
$LN2@operator:
	mov	eax, DWORD PTR __Pad$[ebp]
	sub	eax, 1
	mov	ecx, DWORD PTR __Pad$[ebp+4]
	sbb	ecx, 0
	mov	DWORD PTR __Pad$[ebp], eax
	mov	DWORD PTR __Pad$[ebp+4], ecx
$LN4@operator:
	cmp	DWORD PTR __Pad$[ebp+4], 0
	jl	$LN11@operator
	jg	SHORT $LN26@operator
	cmp	DWORD PTR __Pad$[ebp], 0
	jbe	$LN11@operator
$LN26@operator:
; Line 753
	mov	eax, DWORD PTR __Ostr$[ebp]
	mov	ecx, DWORD PTR [eax]
	mov	edx, DWORD PTR __Ostr$[ebp]
	add	edx, DWORD PTR [ecx+4]
	mov	esi, esp
	mov	ecx, edx
	call	DWORD PTR __imp_?rdbuf@?$basic_ios@DU?$char_traits@D@std@@@std@@QBEPAV?$basic_streambuf@DU?$char_traits@D@std@@@2@XZ
	cmp	esi, esp
	call	__RTC_CheckEsp
	mov	DWORD PTR tv300[ebp], eax
	mov	eax, DWORD PTR tv300[ebp]
	mov	DWORD PTR tv189[ebp], eax
	mov	ecx, DWORD PTR __Ostr$[ebp]
	mov	edx, DWORD PTR [ecx]
	mov	ecx, DWORD PTR __Ostr$[ebp]
	add	ecx, DWORD PTR [edx+4]
	mov	esi, esp
	call	DWORD PTR __imp_?fill@?$basic_ios@DU?$char_traits@D@std@@@std@@QBEDXZ
	cmp	esi, esp
	call	__RTC_CheckEsp
	mov	BYTE PTR tv301[ebp], al
	mov	al, BYTE PTR tv301[ebp]
	mov	BYTE PTR tv187[ebp], al
	mov	esi, esp
	movzx	ecx, BYTE PTR tv187[ebp]
	push	ecx
	mov	ecx, DWORD PTR tv189[ebp]
	call	DWORD PTR __imp_?sputc@?$basic_streambuf@DU?$char_traits@D@std@@@std@@QAEHD@Z
	cmp	esi, esp
	call	__RTC_CheckEsp
	mov	DWORD PTR tv302[ebp], eax
	mov	edx, DWORD PTR tv302[ebp]
	mov	DWORD PTR $T6[ebp], edx
	call	?eof@?$_Narrow_char_traits@DH@std@@SAHXZ ; std::_Narrow_char_traits<char,int>::eof
	mov	DWORD PTR $T5[ebp], eax
	lea	eax, DWORD PTR $T6[ebp]
	push	eax
	lea	ecx, DWORD PTR $T5[ebp]
	push	ecx
	call	?eq_int_type@?$_Narrow_char_traits@DH@std@@SA_NABH0@Z ; std::_Narrow_char_traits<char,int>::eq_int_type
	add	esp, 8
	movzx	edx, al
	test	edx, edx
	je	SHORT $LN12@operator
; Line 754
	mov	eax, DWORD PTR __State$[ebp]
	or	eax, 4
	mov	DWORD PTR __State$[ebp], eax
; Line 755
	jmp	SHORT $LN11@operator
$LN12@operator:
; Line 757
	jmp	$LN2@operator
$LN11@operator:
; Line 760
	cmp	DWORD PTR __State$[ebp], 0
	jne	SHORT $LN13@operator
	mov	eax, DWORD PTR __Ostr$[ebp]
	mov	ecx, DWORD PTR [eax]
	mov	edx, DWORD PTR __Ostr$[ebp]
	add	edx, DWORD PTR [ecx+4]
	mov	esi, esp
	mov	ecx, edx
	call	DWORD PTR __imp_?rdbuf@?$basic_ios@DU?$char_traits@D@std@@@std@@QBEPAV?$basic_streambuf@DU?$char_traits@D@std@@@2@XZ
	cmp	esi, esp
	call	__RTC_CheckEsp
	mov	DWORD PTR tv303[ebp], eax
	mov	eax, DWORD PTR tv303[ebp]
	mov	DWORD PTR tv213[ebp], eax
	mov	esi, esp
	mov	ecx, DWORD PTR __Count$[ebp+4]
	push	ecx
	mov	edx, DWORD PTR __Count$[ebp]
	push	edx
	mov	eax, DWORD PTR __Val$[ebp]
	push	eax
	mov	ecx, DWORD PTR tv213[ebp]
	call	DWORD PTR __imp_?sputn@?$basic_streambuf@DU?$char_traits@D@std@@@std@@QAE_JPBD_J@Z
	cmp	esi, esp
	call	__RTC_CheckEsp
	mov	DWORD PTR tv304[ebp], eax
	mov	DWORD PTR tv304[ebp+4], edx
	mov	ecx, DWORD PTR tv304[ebp]
	cmp	ecx, DWORD PTR __Count$[ebp]
	jne	SHORT $LN27@operator
	mov	edx, DWORD PTR tv304[ebp+4]
	cmp	edx, DWORD PTR __Count$[ebp+4]
	je	SHORT $LN13@operator
$LN27@operator:
; Line 761
	mov	eax, DWORD PTR __State$[ebp]
	or	eax, 4
	mov	DWORD PTR __State$[ebp], eax
$LN13@operator:
; Line 764
	cmp	DWORD PTR __State$[ebp], 0
	jne	$LN14@operator
; Line 765
	jmp	SHORT $LN7@operator
$LN5@operator:
	mov	eax, DWORD PTR __Pad$[ebp]
	sub	eax, 1
	mov	ecx, DWORD PTR __Pad$[ebp+4]
	sbb	ecx, 0
	mov	DWORD PTR __Pad$[ebp], eax
	mov	DWORD PTR __Pad$[ebp+4], ecx
$LN7@operator:
	cmp	DWORD PTR __Pad$[ebp+4], 0
	jl	$LN14@operator
	jg	SHORT $LN28@operator
	cmp	DWORD PTR __Pad$[ebp], 0
	jbe	$LN14@operator
$LN28@operator:
; Line 766
	mov	eax, DWORD PTR __Ostr$[ebp]
	mov	ecx, DWORD PTR [eax]
	mov	edx, DWORD PTR __Ostr$[ebp]
	add	edx, DWORD PTR [ecx+4]
	mov	esi, esp
	mov	ecx, edx
	call	DWORD PTR __imp_?rdbuf@?$basic_ios@DU?$char_traits@D@std@@@std@@QBEPAV?$basic_streambuf@DU?$char_traits@D@std@@@2@XZ
	cmp	esi, esp
	call	__RTC_CheckEsp
	mov	DWORD PTR tv305[ebp], eax
	mov	eax, DWORD PTR tv305[ebp]
	mov	DWORD PTR tv248[ebp], eax
	mov	ecx, DWORD PTR __Ostr$[ebp]
	mov	edx, DWORD PTR [ecx]
	mov	ecx, DWORD PTR __Ostr$[ebp]
	add	ecx, DWORD PTR [edx+4]
	mov	esi, esp
	call	DWORD PTR __imp_?fill@?$basic_ios@DU?$char_traits@D@std@@@std@@QBEDXZ
	cmp	esi, esp
	call	__RTC_CheckEsp
	mov	BYTE PTR tv306[ebp], al
	mov	al, BYTE PTR tv306[ebp]
	mov	BYTE PTR tv246[ebp], al
	mov	esi, esp
	movzx	ecx, BYTE PTR tv246[ebp]
	push	ecx
	mov	ecx, DWORD PTR tv248[ebp]
	call	DWORD PTR __imp_?sputc@?$basic_streambuf@DU?$char_traits@D@std@@@std@@QAEHD@Z
	cmp	esi, esp
	call	__RTC_CheckEsp
	mov	DWORD PTR tv307[ebp], eax
	mov	edx, DWORD PTR tv307[ebp]
	mov	DWORD PTR $T4[ebp], edx
	call	?eof@?$_Narrow_char_traits@DH@std@@SAHXZ ; std::_Narrow_char_traits<char,int>::eof
	mov	DWORD PTR $T3[ebp], eax
	lea	eax, DWORD PTR $T4[ebp]
	push	eax
	lea	ecx, DWORD PTR $T3[ebp]
	push	ecx
	call	?eq_int_type@?$_Narrow_char_traits@DH@std@@SA_NABH0@Z ; std::_Narrow_char_traits<char,int>::eq_int_type
	add	esp, 8
	movzx	edx, al
	test	edx, edx
	je	SHORT $LN15@operator
; Line 767
	mov	eax, DWORD PTR __State$[ebp]
	or	eax, 4
	mov	DWORD PTR __State$[ebp], eax
; Line 768
	jmp	SHORT $LN14@operator
$LN15@operator:
; Line 770
	jmp	$LN5@operator
$LN14@operator:
; Line 773
	mov	eax, DWORD PTR __Ostr$[ebp]
	mov	ecx, DWORD PTR [eax]
	mov	edx, DWORD PTR __Ostr$[ebp]
	add	edx, DWORD PTR [ecx+4]
	mov	DWORD PTR tv268[ebp], edx
	mov	esi, esp
	push	0
	push	0
	mov	ecx, DWORD PTR tv268[ebp]
	call	DWORD PTR __imp_?width@ios_base@std@@QAE_J_J@Z
	cmp	esi, esp
	call	__RTC_CheckEsp
	jmp	SHORT $LN19@operator
__catch$??$?6U?$char_traits@D@std@@@std@@YAAAV?$basic_ostream@DU?$char_traits@D@std@@@0@AAV10@PBD@Z$0:
; Line 774
	mov	eax, DWORD PTR __Ostr$[ebp]
	mov	ecx, DWORD PTR [eax]
	mov	edx, DWORD PTR __Ostr$[ebp]
	add	edx, DWORD PTR [ecx+4]
	mov	DWORD PTR tv281[ebp], edx
	mov	esi, esp
	push	1
	push	4
	mov	ecx, DWORD PTR tv281[ebp]
	call	DWORD PTR __imp_?setstate@?$basic_ios@DU?$char_traits@D@std@@@std@@QAEXH_N@Z
	cmp	esi, esp
	call	__RTC_CheckEsp
	mov	eax, $LN23@operator
	ret	0
$LN19@operator:
	mov	DWORD PTR __$EHRec$[ebp+12], 0
	jmp	SHORT $LN9@operator
$LN23@operator:
	mov	DWORD PTR __$EHRec$[ebp+12], 0
$LN9@operator:
; Line 777
	mov	eax, DWORD PTR __Ostr$[ebp]
	mov	ecx, DWORD PTR [eax]
	mov	edx, DWORD PTR __Ostr$[ebp]
	add	edx, DWORD PTR [ecx+4]
	mov	DWORD PTR tv295[ebp], edx
	mov	esi, esp
	push	0
	mov	eax, DWORD PTR __State$[ebp]
	push	eax
	mov	ecx, DWORD PTR tv295[ebp]
	call	DWORD PTR __imp_?setstate@?$basic_ios@DU?$char_traits@D@std@@@std@@QAEXH_N@Z
	cmp	esi, esp
	call	__RTC_CheckEsp
; Line 778
	mov	eax, DWORD PTR __Ostr$[ebp]
	mov	DWORD PTR $T2[ebp], eax
	mov	DWORD PTR __$EHRec$[ebp+12], -1
	lea	ecx, DWORD PTR __Ok$[ebp]
	call	??1sentry@?$basic_ostream@DU?$char_traits@D@std@@@std@@QAE@XZ ; std::basic_ostream<char,std::char_traits<char> >::sentry::~sentry
	mov	eax, DWORD PTR $T2[ebp]
; Line 779
	push	edx
	mov	ecx, ebp
	push	eax
	lea	edx, DWORD PTR $LN32@operator
	call	@_RTC_CheckStackVars@8
	pop	eax
	pop	edx
	mov	ecx, DWORD PTR __$EHRec$[ebp+4]
	mov	DWORD PTR fs:0, ecx
	pop	ecx
	pop	edi
	pop	esi
	pop	ebx
	mov	ecx, DWORD PTR __$ArrayPad$[ebp]
	xor	ecx, ebp
	call	@__security_check_cookie@4
	add	esp, 356				; 00000164H
	cmp	ebp, esp
	call	__RTC_CheckEsp
	mov	esp, ebp
	pop	ebp
	ret	0
	npad	2
$LN32@operator:
	DD	1
	DD	$LN31@operator
$LN31@operator:
	DD	-76					; ffffffb4H
	DD	8
	DD	$LN29@operator
$LN29@operator:
	DB	95					; 0000005fH
	DB	79					; 0000004fH
	DB	107					; 0000006bH
	DB	0
_TEXT	ENDS
;	COMDAT text$x
text$x	SEGMENT
__unwindfunclet$??$?6U?$char_traits@D@std@@@std@@YAAAV?$basic_ostream@DU?$char_traits@D@std@@@0@AAV10@PBD@Z$2:
	lea	ecx, DWORD PTR __Ok$[ebp]
	jmp	??1sentry@?$basic_ostream@DU?$char_traits@D@std@@@std@@QAE@XZ ; std::basic_ostream<char,std::char_traits<char> >::sentry::~sentry
__ehhandler$??$?6U?$char_traits@D@std@@@std@@YAAAV?$basic_ostream@DU?$char_traits@D@std@@@0@AAV10@PBD@Z:
	mov	edx, DWORD PTR [esp+8]
	lea	eax, DWORD PTR [edx+12]
	mov	ecx, DWORD PTR [edx-360]
	xor	ecx, eax
	call	@__security_check_cookie@4
	mov	ecx, DWORD PTR [edx-8]
	xor	ecx, eax
	call	@__security_check_cookie@4
	mov	eax, OFFSET __ehfuncinfo$??$?6U?$char_traits@D@std@@@std@@YAAAV?$basic_ostream@DU?$char_traits@D@std@@@0@AAV10@PBD@Z
	jmp	___CxxFrameHandler3
text$x	ENDS
??$?6U?$char_traits@D@std@@@std@@YAAAV?$basic_ostream@DU?$char_traits@D@std@@@0@AAV10@PBD@Z ENDP ; std::operator<<<std::char_traits<char> >
; Function compile flags: /Odtp /RTCsu /ZI
;	COMDAT _main
_TEXT	SEGMENT
tv145 = -632						; size = 8
tv261 = -624						; size = 8
tv174 = -620						; size = 4
tv147 = -620						; size = 4
tv311 = -616						; size = 4
tv176 = -616						; size = 4
tv316 = -612						; size = 4
tv310 = -612						; size = 4
tv263 = -612						; size = 4
tv315 = -608						; size = 4
tv299 = -608						; size = 4
tv221 = -608						; size = 8
tv137 = -608						; size = 8
tv301 = -604						; size = 4
tv194 = -604						; size = 4
tv166 = -604						; size = 4
tv291 = -600						; size = 4
tv189 = -600						; size = 4
tv168 = -600						; size = 4
tv139 = -600						; size = 4
tv314 = -596						; size = 4
tv313 = -596						; size = 4
tv312 = -596						; size = 4
tv309 = -596						; size = 4
tv308 = -596						; size = 4
tv293 = -596						; size = 4
tv223 = -596						; size = 4
tv187 = -596						; size = 4
tv83 = -596						; size = 4
tv71 = -596						; size = 4
$T2 = -588						; size = 20
$T3 = -560						; size = 8
$T4 = -544						; size = 8
$T5 = -525						; size = 1
_lasti2$6 = -324					; size = 4
_firsti2$7 = -312					; size = 4
_$S4$8 = -300						; size = 8
_opti$ = -284						; size = 12
_lastd2$9 = -264					; size = 4
_firstd2$10 = -252					; size = 4
_$S3$11 = -240						; size = 16
_optd$ = -216						; size = 24
_ex$12 = -180						; size = 4
_lasti1$13 = -168					; size = 4
_firsti1$14 = -156					; size = 4
_$S2$15 = -144						; size = 8
_lastd1$16 = -128					; size = 4
_firstd1$17 = -116					; size = 4
_$S1$18 = -104						; size = 16
_vecInt$ = -80						; size = 16
_dArr$ = -56						; size = 24
__$ArrayPad$ = -28					; size = 4
__$EHRec$ = -16						; size = 16
_main	PROC						; COMDAT
; File C:\github\JimFawcett\CppStory\Chapter1-overloading\Overloading.cpp
; Line 44
	push	ebx
	mov	ebx, esp
	sub	esp, 8
	and	esp, -8					; fffffff8H
	add	esp, 4
	push	ebp
	mov	ebp, DWORD PTR [ebx+4]
	mov	DWORD PTR [esp+4], ebp
	mov	ebp, esp
	push	-1
	push	__ehhandler$_main
	mov	eax, DWORD PTR fs:0
	push	eax
	push	ecx
	push	ebx
	push	ecx
	sub	esp, 612				; 00000264H
	push	esi
	push	edi
	lea	edi, DWORD PTR [ebp-636]
	mov	ecx, 153				; 00000099H
	mov	eax, -858993460				; ccccccccH
	rep stosd
	mov	eax, DWORD PTR ___security_cookie
	xor	eax, ebp
	mov	DWORD PTR __$ArrayPad$[ebp], eax
	push	eax
	lea	eax, DWORD PTR __$EHRec$[ebp+4]
	mov	DWORD PTR fs:0, eax
	mov	DWORD PTR __$EHRec$[ebp], esp
	mov	ecx, OFFSET __559208D6_Overloading@cpp
	call	@__CheckForDebuggerJustMyCode@4
; Line 46
	push	OFFSET ??_C@_0CG@PJKAEDDD@?6?5?5Demonstrating?5Function?5Overl@
	mov	eax, DWORD PTR __imp_?cout@std@@3V?$basic_ostream@DU?$char_traits@D@std@@@1@A
	push	eax
	call	??$?6U?$char_traits@D@std@@@std@@YAAAV?$basic_ostream@DU?$char_traits@D@std@@@0@AAV10@PBD@Z ; std::operator<<<std::char_traits<char> >
	add	esp, 8
; Line 47
	push	OFFSET ??_C@_0CI@EDPLBKEE@?6?5?$DN?$DN?$DN?$DN?$DN?$DN?$DN?$DN?$DN?$DN?$DN?$DN?$DN?$DN?$DN?$DN?$DN?$DN?$DN?$DN?$DN?$DN?$DN?$DN?$DN?$DN?$DN?$DN?$DN@
	mov	eax, DWORD PTR __imp_?cout@std@@3V?$basic_ostream@DU?$char_traits@D@std@@@1@A
	push	eax
	call	??$?6U?$char_traits@D@std@@@std@@YAAAV?$basic_ostream@DU?$char_traits@D@std@@@0@AAV10@PBD@Z ; std::operator<<<std::char_traits<char> >
	add	esp, 8
; Line 49
	movsd	xmm0, QWORD PTR __real@3ff8000000000000
	movsd	QWORD PTR _dArr$[ebp], xmm0
	movsd	xmm0, QWORD PTR __real@bfe0000000000000
	movsd	QWORD PTR _dArr$[ebp+8], xmm0
	movsd	xmm0, QWORD PTR __real@4008000000000000
	movsd	QWORD PTR _dArr$[ebp+16], xmm0
; Line 50
	push	16					; 00000010H
	lea	ecx, DWORD PTR _vecInt$[ebp]
	call	?__autoclassinit2@?$vector@HV?$allocator@H@std@@@std@@QAEXI@Z
	lea	ecx, DWORD PTR $T5[ebp]
	call	??0?$allocator@H@std@@QAE@XZ		; std::allocator<int>::allocator<int>
	mov	DWORD PTR tv83[ebp], eax
	mov	DWORD PTR $T2[ebp], 1
	mov	DWORD PTR $T2[ebp+4], 2
	mov	DWORD PTR $T2[ebp+8], 3
	mov	DWORD PTR $T2[ebp+12], 4
	mov	DWORD PTR $T2[ebp+16], 5
	lea	eax, DWORD PTR $T2[ebp+20]
	push	eax
	lea	ecx, DWORD PTR $T2[ebp]
	push	ecx
	lea	ecx, DWORD PTR $T4[ebp]
	call	??0?$initializer_list@H@std@@QAE@PBH0@Z	; std::initializer_list<int>::initializer_list<int>
	mov	edx, DWORD PTR [eax]
	mov	DWORD PTR $T3[ebp], edx
	mov	eax, DWORD PTR [eax+4]
	mov	DWORD PTR $T3[ebp+4], eax
	mov	ecx, DWORD PTR tv83[ebp]
	push	ecx
	mov	edx, DWORD PTR $T3[ebp+4]
	push	edx
	mov	eax, DWORD PTR $T3[ebp]
	push	eax
	lea	ecx, DWORD PTR _vecInt$[ebp]
	call	??0?$vector@HV?$allocator@H@std@@@std@@QAE@V?$initializer_list@H@1@ABV?$allocator@H@1@@Z ; std::vector<int,std::allocator<int> >::vector<int,std::allocator<int> >
	mov	DWORD PTR __$EHRec$[ebp+12], 0
; Line 52
	mov	BYTE PTR __$EHRec$[ebp+12], 1
; Line 53
	push	3
	lea	eax, DWORD PTR _dArr$[ebp]
	push	eax
	lea	ecx, DWORD PTR _$S1$18[ebp]
	push	ecx
	call	?firstAndLast@@YA?AU?$pair@NN@std@@QANI@Z ; firstAndLast
	add	esp, 12					; 0000000cH
	lea	eax, DWORD PTR _$S1$18[ebp]
	push	eax
	call	??$<move>@AAU?$pair@NN@std@@@@YA$$QAU?$pair@NN@std@@AAU01@@Z ; <move><std::pair<double,double> &>
	add	esp, 4
	mov	DWORD PTR tv71[ebp], eax
	mov	ecx, DWORD PTR tv71[ebp]
	push	ecx
	call	??$get@$0A@NN@std@@YA$$QAN$$QAU?$pair@NN@0@@Z ; std::get<0,double,double>
	add	esp, 4
	mov	DWORD PTR _firstd1$17[ebp], eax
	lea	eax, DWORD PTR _$S1$18[ebp]
	push	eax
	call	??$<move>@AAU?$pair@NN@std@@@@YA$$QAU?$pair@NN@std@@AAU01@@Z ; <move><std::pair<double,double> &>
	add	esp, 4
	mov	DWORD PTR tv308[ebp], eax
	mov	ecx, DWORD PTR tv308[ebp]
	push	ecx
	call	??$get@$00NN@std@@YA$$QAN$$QAU?$pair@NN@0@@Z ; std::get<1,double,double>
	add	esp, 4
	mov	DWORD PTR _lastd1$16[ebp], eax
; Line 54
	push	OFFSET ??_C@_0M@KEBHBLHF@?6?5?5first?5?$DN?5@
	mov	eax, DWORD PTR __imp_?cout@std@@3V?$basic_ostream@DU?$char_traits@D@std@@@1@A
	push	eax
	call	??$?6U?$char_traits@D@std@@@std@@YAAAV?$basic_ostream@DU?$char_traits@D@std@@@0@AAV10@PBD@Z ; std::operator<<<std::char_traits<char> >
	add	esp, 8
	mov	DWORD PTR tv309[ebp], eax
	mov	ecx, DWORD PTR tv309[ebp]
	mov	DWORD PTR tv139[ebp], ecx
	mov	edx, DWORD PTR _firstd1$17[ebp]
	movsd	xmm0, QWORD PTR [edx]
	movsd	QWORD PTR tv137[ebp], xmm0
	mov	esi, esp
	sub	esp, 8
	movsd	xmm0, QWORD PTR tv137[ebp]
	movsd	QWORD PTR [esp], xmm0
	mov	ecx, DWORD PTR tv139[ebp]
	call	DWORD PTR __imp_??6?$basic_ostream@DU?$char_traits@D@std@@@std@@QAEAAV01@N@Z
	cmp	esi, esp
	call	__RTC_CheckEsp
	mov	DWORD PTR tv310[ebp], eax
	push	OFFSET ??_C@_09PJIBMAOO@?0?5last?5?$DN?5@
	mov	eax, DWORD PTR tv310[ebp]
	push	eax
	call	??$?6U?$char_traits@D@std@@@std@@YAAAV?$basic_ostream@DU?$char_traits@D@std@@@0@AAV10@PBD@Z ; std::operator<<<std::char_traits<char> >
	add	esp, 8
	mov	DWORD PTR tv311[ebp], eax
	mov	ecx, DWORD PTR tv311[ebp]
	mov	DWORD PTR tv147[ebp], ecx
	mov	edx, DWORD PTR _lastd1$16[ebp]
	movsd	xmm0, QWORD PTR [edx]
	movsd	QWORD PTR tv145[ebp], xmm0
	mov	esi, esp
	sub	esp, 8
	movsd	xmm0, QWORD PTR tv145[ebp]
	movsd	QWORD PTR [esp], xmm0
	mov	ecx, DWORD PTR tv147[ebp]
	call	DWORD PTR __imp_??6?$basic_ostream@DU?$char_traits@D@std@@@std@@QAEAAV01@N@Z
	cmp	esi, esp
	call	__RTC_CheckEsp
; Line 56
	lea	eax, DWORD PTR _vecInt$[ebp]
	push	eax
	lea	ecx, DWORD PTR _$S2$15[ebp]
	push	ecx
	call	?firstAndLast@@YA?AU?$pair@HH@std@@ABV?$vector@HV?$allocator@H@std@@@2@@Z ; firstAndLast
	add	esp, 8
	lea	eax, DWORD PTR _$S2$15[ebp]
	push	eax
	call	??$<move>@AAU?$pair@HH@std@@@@YA$$QAU?$pair@HH@std@@AAU01@@Z ; <move><std::pair<int,int> &>
	add	esp, 4
	mov	DWORD PTR tv312[ebp], eax
	mov	ecx, DWORD PTR tv312[ebp]
	push	ecx
	call	??$get@$0A@HH@std@@YA$$QAH$$QAU?$pair@HH@0@@Z ; std::get<0,int,int>
	add	esp, 4
	mov	DWORD PTR _firsti1$14[ebp], eax
	lea	eax, DWORD PTR _$S2$15[ebp]
	push	eax
	call	??$<move>@AAU?$pair@HH@std@@@@YA$$QAU?$pair@HH@std@@AAU01@@Z ; <move><std::pair<int,int> &>
	add	esp, 4
	mov	DWORD PTR tv313[ebp], eax
	mov	ecx, DWORD PTR tv313[ebp]
	push	ecx
	call	??$get@$00HH@std@@YA$$QAH$$QAU?$pair@HH@0@@Z ; std::get<1,int,int>
	add	esp, 4
	mov	DWORD PTR _lasti1$13[ebp], eax
; Line 57
	push	OFFSET ??_C@_0M@KEBHBLHF@?6?5?5first?5?$DN?5@
	mov	eax, DWORD PTR __imp_?cout@std@@3V?$basic_ostream@DU?$char_traits@D@std@@@1@A
	push	eax
	call	??$?6U?$char_traits@D@std@@@std@@YAAAV?$basic_ostream@DU?$char_traits@D@std@@@0@AAV10@PBD@Z ; std::operator<<<std::char_traits<char> >
	add	esp, 8
	mov	DWORD PTR tv314[ebp], eax
	mov	ecx, DWORD PTR tv314[ebp]
	mov	DWORD PTR tv168[ebp], ecx
	mov	edx, DWORD PTR _firsti1$14[ebp]
	mov	eax, DWORD PTR [edx]
	mov	DWORD PTR tv166[ebp], eax
	mov	esi, esp
	mov	ecx, DWORD PTR tv166[ebp]
	push	ecx
	mov	ecx, DWORD PTR tv168[ebp]
	call	DWORD PTR __imp_??6?$basic_ostream@DU?$char_traits@D@std@@@std@@QAEAAV01@H@Z
	cmp	esi, esp
	call	__RTC_CheckEsp
	mov	DWORD PTR tv315[ebp], eax
	push	OFFSET ??_C@_09PJIBMAOO@?0?5last?5?$DN?5@
	mov	edx, DWORD PTR tv315[ebp]
	push	edx
	call	??$?6U?$char_traits@D@std@@@std@@YAAAV?$basic_ostream@DU?$char_traits@D@std@@@0@AAV10@PBD@Z ; std::operator<<<std::char_traits<char> >
	add	esp, 8
	mov	DWORD PTR tv316[ebp], eax
	mov	eax, DWORD PTR tv316[ebp]
	mov	DWORD PTR tv176[ebp], eax
	mov	ecx, DWORD PTR _lasti1$13[ebp]
	mov	edx, DWORD PTR [ecx]
	mov	DWORD PTR tv174[ebp], edx
	mov	esi, esp
	mov	eax, DWORD PTR tv174[ebp]
	push	eax
	mov	ecx, DWORD PTR tv176[ebp]
	call	DWORD PTR __imp_??6?$basic_ostream@DU?$char_traits@D@std@@@std@@QAEAAV01@H@Z
	cmp	esi, esp
	call	__RTC_CheckEsp
; Line 58
	jmp	SHORT $LN8@main
__catch$_main$0:
	mov	ebx, DWORD PTR [ebp-20]
; Line 60
	push	OFFSET ??_C@_03BMMPKCMF@?6?5?5@
	mov	eax, DWORD PTR __imp_?cout@std@@3V?$basic_ostream@DU?$char_traits@D@std@@@1@A
	push	eax
	call	??$?6U?$char_traits@D@std@@@std@@YAAAV?$basic_ostream@DU?$char_traits@D@std@@@0@AAV10@PBD@Z ; std::operator<<<std::char_traits<char> >
	add	esp, 8
	mov	DWORD PTR tv187[ebp], eax
	mov	esi, esp
	mov	ecx, DWORD PTR _ex$12[ebp]
	mov	edx, DWORD PTR [ecx]
	mov	ecx, DWORD PTR _ex$12[ebp]
	mov	eax, DWORD PTR [edx+4]
	call	eax
	cmp	esi, esp
	call	__RTC_CheckEsp
	mov	DWORD PTR tv189[ebp], eax
	mov	ecx, DWORD PTR tv189[ebp]
	push	ecx
	mov	edx, DWORD PTR tv187[ebp]
	push	edx
	call	??$?6U?$char_traits@D@std@@@std@@YAAAV?$basic_ostream@DU?$char_traits@D@std@@@0@AAV10@PBD@Z ; std::operator<<<std::char_traits<char> >
	add	esp, 8
	mov	DWORD PTR tv194[ebp], eax
	mov	esi, esp
	push	OFFSET ??$endl@DU?$char_traits@D@std@@@std@@YAAAV?$basic_ostream@DU?$char_traits@D@std@@@0@AAV10@@Z ; std::endl<char,std::char_traits<char> >
	mov	ecx, DWORD PTR tv194[ebp]
	call	DWORD PTR __imp_??6?$basic_ostream@DU?$char_traits@D@std@@@std@@QAEAAV01@P6AAAV01@AAV01@@Z@Z
	cmp	esi, esp
	call	__RTC_CheckEsp
; Line 61
	mov	eax, $LN25@main
	ret	0
$LN8@main:
	mov	DWORD PTR __$EHRec$[ebp+12], 0
	jmp	SHORT $LN11@main
$LN25@main:
	mov	ebx, DWORD PTR [ebp-20]
	mov	DWORD PTR __$EHRec$[ebp+12], 0
$LN11@main:
; Line 63
	push	3
	lea	eax, DWORD PTR _dArr$[ebp]
	push	eax
	lea	ecx, DWORD PTR _optd$[ebp]
	push	ecx
	call	?firstAndLastOpt@@YA?AV?$optional@U?$pair@NN@std@@@std@@QANI@Z ; firstAndLastOpt
	add	esp, 12					; 0000000cH
; Line 64
	lea	ecx, DWORD PTR _optd$[ebp]
	call	?has_value@?$optional@U?$pair@NN@std@@@std@@QBE_NXZ ; std::optional<std::pair<double,double> >::has_value
	movzx	eax, al
	test	eax, eax
	je	$LN3@main
; Line 65
	lea	ecx, DWORD PTR _optd$[ebp]
	call	?value@?$optional@U?$pair@NN@std@@@std@@QGAEAAU?$pair@NN@2@XZ ; std::optional<std::pair<double,double> >::value
	mov	ecx, DWORD PTR [eax]
	mov	DWORD PTR _$S3$11[ebp], ecx
	mov	edx, DWORD PTR [eax+4]
	mov	DWORD PTR _$S3$11[ebp+4], edx
	mov	ecx, DWORD PTR [eax+8]
	mov	DWORD PTR _$S3$11[ebp+8], ecx
	mov	edx, DWORD PTR [eax+12]
	mov	DWORD PTR _$S3$11[ebp+12], edx
	lea	eax, DWORD PTR _$S3$11[ebp]
	push	eax
	call	??$<move>@AAU?$pair@NN@std@@@@YA$$QAU?$pair@NN@std@@AAU01@@Z ; <move><std::pair<double,double> &>
	add	esp, 4
	push	eax
	call	??$get@$0A@NN@std@@YA$$QAN$$QAU?$pair@NN@0@@Z ; std::get<0,double,double>
	add	esp, 4
	mov	DWORD PTR _firstd2$10[ebp], eax
	lea	eax, DWORD PTR _$S3$11[ebp]
	push	eax
	call	??$<move>@AAU?$pair@NN@std@@@@YA$$QAU?$pair@NN@std@@AAU01@@Z ; <move><std::pair<double,double> &>
	add	esp, 4
	push	eax
	call	??$get@$00NN@std@@YA$$QAN$$QAU?$pair@NN@0@@Z ; std::get<1,double,double>
	add	esp, 4
	mov	DWORD PTR _lastd2$9[ebp], eax
; Line 66
	push	OFFSET ??_C@_0M@KEBHBLHF@?6?5?5first?5?$DN?5@
	mov	eax, DWORD PTR __imp_?cout@std@@3V?$basic_ostream@DU?$char_traits@D@std@@@1@A
	push	eax
	call	??$?6U?$char_traits@D@std@@@std@@YAAAV?$basic_ostream@DU?$char_traits@D@std@@@0@AAV10@PBD@Z ; std::operator<<<std::char_traits<char> >
	add	esp, 8
	mov	DWORD PTR tv223[ebp], eax
	mov	ecx, DWORD PTR _firstd2$10[ebp]
	movsd	xmm0, QWORD PTR [ecx]
	movsd	QWORD PTR tv221[ebp], xmm0
	push	OFFSET ??_C@_09PJIBMAOO@?0?5last?5?$DN?5@
	mov	esi, esp
	sub	esp, 8
	movsd	xmm0, QWORD PTR tv221[ebp]
	movsd	QWORD PTR [esp], xmm0
	mov	ecx, DWORD PTR tv223[ebp]
	call	DWORD PTR __imp_??6?$basic_ostream@DU?$char_traits@D@std@@@std@@QAEAAV01@N@Z
	cmp	esi, esp
	call	__RTC_CheckEsp
	push	eax
	call	??$?6U?$char_traits@D@std@@@std@@YAAAV?$basic_ostream@DU?$char_traits@D@std@@@0@AAV10@PBD@Z ; std::operator<<<std::char_traits<char> >
	add	esp, 8
	mov	DWORD PTR tv263[ebp], eax
	mov	edx, DWORD PTR _lastd2$9[ebp]
	movsd	xmm0, QWORD PTR [edx]
	movsd	QWORD PTR tv261[ebp], xmm0
	mov	esi, esp
	sub	esp, 8
	movsd	xmm0, QWORD PTR tv261[ebp]
	movsd	QWORD PTR [esp], xmm0
	mov	ecx, DWORD PTR tv263[ebp]
	call	DWORD PTR __imp_??6?$basic_ostream@DU?$char_traits@D@std@@@std@@QAEAAV01@N@Z
	cmp	esi, esp
	call	__RTC_CheckEsp
; Line 67
	jmp	SHORT $LN4@main
$LN3@main:
; Line 69
	push	OFFSET ??_C@_0BG@ILJLLCHH@?6?5?5array?5query?5failed@
	mov	eax, DWORD PTR __imp_?cout@std@@3V?$basic_ostream@DU?$char_traits@D@std@@@1@A
	push	eax
	call	??$?6U?$char_traits@D@std@@@std@@YAAAV?$basic_ostream@DU?$char_traits@D@std@@@0@AAV10@PBD@Z ; std::operator<<<std::char_traits<char> >
	add	esp, 8
$LN4@main:
; Line 72
	lea	eax, DWORD PTR _vecInt$[ebp]
	push	eax
	lea	ecx, DWORD PTR _opti$[ebp]
	push	ecx
	call	?firstAndLastOpt@@YA?AV?$optional@U?$pair@HH@std@@@std@@ABV?$vector@HV?$allocator@H@std@@@2@@Z ; firstAndLastOpt
	add	esp, 8
; Line 73
	lea	ecx, DWORD PTR _opti$[ebp]
	call	?has_value@?$optional@U?$pair@HH@std@@@std@@QBE_NXZ ; std::optional<std::pair<int,int> >::has_value
	movzx	eax, al
	test	eax, eax
	je	$LN5@main
; Line 74
	lea	ecx, DWORD PTR _opti$[ebp]
	call	?value@?$optional@U?$pair@HH@std@@@std@@QGAEAAU?$pair@HH@2@XZ ; std::optional<std::pair<int,int> >::value
	mov	ecx, DWORD PTR [eax]
	mov	edx, DWORD PTR [eax+4]
	mov	DWORD PTR _$S4$8[ebp], ecx
	mov	DWORD PTR _$S4$8[ebp+4], edx
	lea	eax, DWORD PTR _$S4$8[ebp]
	push	eax
	call	??$<move>@AAU?$pair@HH@std@@@@YA$$QAU?$pair@HH@std@@AAU01@@Z ; <move><std::pair<int,int> &>
	add	esp, 4
	push	eax
	call	??$get@$0A@HH@std@@YA$$QAH$$QAU?$pair@HH@0@@Z ; std::get<0,int,int>
	add	esp, 4
	mov	DWORD PTR _firsti2$7[ebp], eax
	lea	eax, DWORD PTR _$S4$8[ebp]
	push	eax
	call	??$<move>@AAU?$pair@HH@std@@@@YA$$QAU?$pair@HH@std@@AAU01@@Z ; <move><std::pair<int,int> &>
	add	esp, 4
	push	eax
	call	??$get@$00HH@std@@YA$$QAH$$QAU?$pair@HH@0@@Z ; std::get<1,int,int>
	add	esp, 4
	mov	DWORD PTR _lasti2$6[ebp], eax
; Line 75
	push	OFFSET ??_C@_0M@KEBHBLHF@?6?5?5first?5?$DN?5@
	mov	eax, DWORD PTR __imp_?cout@std@@3V?$basic_ostream@DU?$char_traits@D@std@@@1@A
	push	eax
	call	??$?6U?$char_traits@D@std@@@std@@YAAAV?$basic_ostream@DU?$char_traits@D@std@@@0@AAV10@PBD@Z ; std::operator<<<std::char_traits<char> >
	add	esp, 8
	mov	DWORD PTR tv293[ebp], eax
	mov	ecx, DWORD PTR _firsti2$7[ebp]
	mov	edx, DWORD PTR [ecx]
	mov	DWORD PTR tv291[ebp], edx
	push	OFFSET ??_C@_09PJIBMAOO@?0?5last?5?$DN?5@
	mov	esi, esp
	mov	eax, DWORD PTR tv291[ebp]
	push	eax
	mov	ecx, DWORD PTR tv293[ebp]
	call	DWORD PTR __imp_??6?$basic_ostream@DU?$char_traits@D@std@@@std@@QAEAAV01@H@Z
	cmp	esi, esp
	call	__RTC_CheckEsp
	push	eax
	call	??$?6U?$char_traits@D@std@@@std@@YAAAV?$basic_ostream@DU?$char_traits@D@std@@@0@AAV10@PBD@Z ; std::operator<<<std::char_traits<char> >
	add	esp, 8
	mov	DWORD PTR tv301[ebp], eax
	mov	ecx, DWORD PTR _lasti2$6[ebp]
	mov	edx, DWORD PTR [ecx]
	mov	DWORD PTR tv299[ebp], edx
	mov	esi, esp
	mov	eax, DWORD PTR tv299[ebp]
	push	eax
	mov	ecx, DWORD PTR tv301[ebp]
	call	DWORD PTR __imp_??6?$basic_ostream@DU?$char_traits@D@std@@@std@@QAEAAV01@H@Z
	cmp	esi, esp
	call	__RTC_CheckEsp
; Line 76
	jmp	SHORT $LN6@main
$LN5@main:
; Line 78
	push	OFFSET ??_C@_0BH@IDHHFMPP@?6?5?5vector?5query?5failed@
	mov	eax, DWORD PTR __imp_?cout@std@@3V?$basic_ostream@DU?$char_traits@D@std@@@1@A
	push	eax
	call	??$?6U?$char_traits@D@std@@@std@@YAAAV?$basic_ostream@DU?$char_traits@D@std@@@0@AAV10@PBD@Z ; std::operator<<<std::char_traits<char> >
	add	esp, 8
$LN6@main:
; Line 81
	push	OFFSET ??_C@_02PHMGELLB@?6?6@
	mov	eax, DWORD PTR __imp_?cout@std@@3V?$basic_ostream@DU?$char_traits@D@std@@@1@A
	push	eax
	call	??$?6U?$char_traits@D@std@@@std@@YAAAV?$basic_ostream@DU?$char_traits@D@std@@@0@AAV10@PBD@Z ; std::operator<<<std::char_traits<char> >
	add	esp, 8
; Line 82
	mov	DWORD PTR __$EHRec$[ebp+12], -1
	lea	ecx, DWORD PTR _vecInt$[ebp]
	call	??1?$vector@HV?$allocator@H@std@@@std@@QAE@XZ ; std::vector<int,std::allocator<int> >::~vector<int,std::allocator<int> >
	xor	eax, eax
	push	edx
	mov	ecx, ebp
	push	eax
	lea	edx, DWORD PTR $LN24@main
	call	@_RTC_CheckStackVars@8
	pop	eax
	pop	edx
	mov	ecx, DWORD PTR __$EHRec$[ebp+4]
	mov	DWORD PTR fs:0, ecx
	pop	ecx
	pop	edi
	pop	esi
	mov	ecx, DWORD PTR __$ArrayPad$[ebp]
	xor	ecx, ebp
	call	@__security_check_cookie@4
	mov	esp, ebp
	pop	ebp
	mov	esp, ebx
	pop	ebx
	ret	0
	npad	1
$LN24@main:
	DD	9
	DD	$LN23@main
$LN23@main:
	DD	-56					; ffffffc8H
	DD	24					; 00000018H
	DD	$LN13@main
	DD	-80					; ffffffb0H
	DD	16					; 00000010H
	DD	$LN14@main
	DD	-104					; ffffff98H
	DD	16					; 00000010H
	DD	$LN15@main
	DD	-144					; ffffff70H
	DD	8
	DD	$LN16@main
	DD	-180					; ffffff4cH
	DD	4
	DD	$LN17@main
	DD	-216					; ffffff28H
	DD	24					; 00000018H
	DD	$LN18@main
	DD	-240					; ffffff10H
	DD	16					; 00000010H
	DD	$LN19@main
	DD	-284					; fffffee4H
	DD	12					; 0000000cH
	DD	$LN20@main
	DD	-300					; fffffed4H
	DD	8
	DD	$LN21@main
$LN21@main:
	DB	36					; 00000024H
	DB	83					; 00000053H
	DB	52					; 00000034H
	DB	0
$LN20@main:
	DB	111					; 0000006fH
	DB	112					; 00000070H
	DB	116					; 00000074H
	DB	105					; 00000069H
	DB	0
$LN19@main:
	DB	36					; 00000024H
	DB	83					; 00000053H
	DB	51					; 00000033H
	DB	0
$LN18@main:
	DB	111					; 0000006fH
	DB	112					; 00000070H
	DB	116					; 00000074H
	DB	100					; 00000064H
	DB	0
$LN17@main:
	DB	101					; 00000065H
	DB	120					; 00000078H
	DB	0
$LN16@main:
	DB	36					; 00000024H
	DB	83					; 00000053H
	DB	50					; 00000032H
	DB	0
$LN15@main:
	DB	36					; 00000024H
	DB	83					; 00000053H
	DB	49					; 00000031H
	DB	0
$LN14@main:
	DB	118					; 00000076H
	DB	101					; 00000065H
	DB	99					; 00000063H
	DB	73					; 00000049H
	DB	110					; 0000006eH
	DB	116					; 00000074H
	DB	0
$LN13@main:
	DB	100					; 00000064H
	DB	65					; 00000041H
	DB	114					; 00000072H
	DB	114					; 00000072H
	DB	0
_TEXT	ENDS
;	COMDAT text$x
text$x	SEGMENT
__unwindfunclet$_main$2:
	lea	ecx, DWORD PTR _vecInt$[ebp]
	jmp	??1?$vector@HV?$allocator@H@std@@@std@@QAE@XZ ; std::vector<int,std::allocator<int> >::~vector<int,std::allocator<int> >
__ehhandler$_main:
	mov	edx, DWORD PTR [esp+8]
	lea	eax, DWORD PTR [edx+12]
	mov	ecx, DWORD PTR [edx-636]
	xor	ecx, eax
	call	@__security_check_cookie@4
	mov	ecx, DWORD PTR [edx-16]
	xor	ecx, eax
	call	@__security_check_cookie@4
	mov	eax, OFFSET __ehfuncinfo$_main
	jmp	___CxxFrameHandler3
text$x	ENDS
_main	ENDP
; Function compile flags: /Odtp /RTCsu /ZI
;	COMDAT ??$?4U?$pair@HH@std@@X@?$optional@U?$pair@HH@std@@@std@@QAEAAV01@$$QAU?$pair@HH@1@@Z
_TEXT	SEGMENT
_this$ = -8						; size = 4
__Right$ = 8						; size = 4
??$?4U?$pair@HH@std@@X@?$optional@U?$pair@HH@std@@@std@@QAEAAV01@$$QAU?$pair@HH@1@@Z PROC ; std::optional<std::pair<int,int> >::operator=<std::pair<int,int>,void>, COMDAT
; _this$ = ecx
; File C:\Program Files (x86)\Microsoft Visual Studio\2019\Community\VC\Tools\MSVC\14.23.28105\include\optional
; Line 259
	push	ebp
	mov	ebp, esp
	sub	esp, 204				; 000000ccH
	push	ebx
	push	esi
	push	edi
	push	ecx
	lea	edi, DWORD PTR [ebp-204]
	mov	ecx, 51					; 00000033H
	mov	eax, -858993460				; ccccccccH
	rep stosd
	pop	ecx
	mov	DWORD PTR _this$[ebp], ecx
	mov	ecx, OFFSET __EF3496CC_optional
	call	@__CheckForDebuggerJustMyCode@4
; Line 260
	mov	eax, DWORD PTR __Right$[ebp]
	push	eax
	call	??$forward@U?$pair@HH@std@@@std@@YA$$QAU?$pair@HH@0@AAU10@@Z ; std::forward<std::pair<int,int> >
	add	esp, 4
	push	eax
	mov	ecx, DWORD PTR _this$[ebp]
	call	??$_Assign@U?$pair@HH@std@@@?$_Optional_construct_base@U?$pair@HH@std@@@std@@QAEX$$QAU?$pair@HH@1@@Z ; std::_Optional_construct_base<std::pair<int,int> >::_Assign<std::pair<int,int> >
; Line 261
	mov	eax, DWORD PTR _this$[ebp]
; Line 262
	pop	edi
	pop	esi
	pop	ebx
	add	esp, 204				; 000000ccH
	cmp	ebp, esp
	call	__RTC_CheckEsp
	mov	esp, ebp
	pop	ebp
	ret	4
??$?4U?$pair@HH@std@@X@?$optional@U?$pair@HH@std@@@std@@QAEAAV01@$$QAU?$pair@HH@1@@Z ENDP ; std::optional<std::pair<int,int> >::operator=<std::pair<int,int>,void>
_TEXT	ENDS
; Function compile flags: /Odtp /RTCsu /ZI
;	COMDAT ?value@?$optional@U?$pair@HH@std@@@std@@QGAEAAU?$pair@HH@2@XZ
_TEXT	SEGMENT
_this$ = -8						; size = 4
?value@?$optional@U?$pair@HH@std@@@std@@QGAEAAU?$pair@HH@2@XZ PROC ; std::optional<std::pair<int,int> >::value, COMDAT
; _this$ = ecx
; File C:\Program Files (x86)\Microsoft Visual Studio\2019\Community\VC\Tools\MSVC\14.23.28105\include\optional
; Line 353
	push	ebp
	mov	ebp, esp
	sub	esp, 204				; 000000ccH
	push	ebx
	push	esi
	push	edi
	push	ecx
	lea	edi, DWORD PTR [ebp-204]
	mov	ecx, 51					; 00000033H
	mov	eax, -858993460				; ccccccccH
	rep stosd
	pop	ecx
	mov	DWORD PTR _this$[ebp], ecx
	mov	ecx, OFFSET __EF3496CC_optional
	call	@__CheckForDebuggerJustMyCode@4
; Line 354
	mov	ecx, DWORD PTR _this$[ebp]
	call	?has_value@?$optional@U?$pair@HH@std@@@std@@QBE_NXZ ; std::optional<std::pair<int,int> >::has_value
	movzx	eax, al
	test	eax, eax
	jne	SHORT $LN2@value
; Line 355
	call	?_Throw_bad_optional_access@std@@YAXXZ	; std::_Throw_bad_optional_access
$LN2@value:
; Line 358
	mov	ecx, DWORD PTR _this$[ebp]
	call	?_Get@?$_Optional_construct_base@U?$pair@HH@std@@@std@@QGAEAAU?$pair@HH@2@XZ ; std::_Optional_construct_base<std::pair<int,int> >::_Get
$LN3@value:
; Line 359
	pop	edi
	pop	esi
	pop	ebx
	add	esp, 204				; 000000ccH
	cmp	ebp, esp
	call	__RTC_CheckEsp
	mov	esp, ebp
	pop	ebp
	ret	0
?value@?$optional@U?$pair@HH@std@@@std@@QGAEAAU?$pair@HH@2@XZ ENDP ; std::optional<std::pair<int,int> >::value
_TEXT	ENDS
; Function compile flags: /Odtp /RTCsu /ZI
;	COMDAT ?has_value@?$optional@U?$pair@HH@std@@@std@@QBE_NXZ
_TEXT	SEGMENT
_this$ = -20						; size = 4
__$EHRec$ = -12						; size = 12
?has_value@?$optional@U?$pair@HH@std@@@std@@QBE_NXZ PROC ; std::optional<std::pair<int,int> >::has_value, COMDAT
; _this$ = ecx
; File C:\Program Files (x86)\Microsoft Visual Studio\2019\Community\VC\Tools\MSVC\14.23.28105\include\optional
; Line 342
	push	ebp
	mov	ebp, esp
	push	-1
	push	__ehhandler$?has_value@?$optional@U?$pair@HH@std@@@std@@QBE_NXZ
	mov	eax, DWORD PTR fs:0
	push	eax
	sub	esp, 204				; 000000ccH
	push	ebx
	push	esi
	push	edi
	push	ecx
	lea	edi, DWORD PTR [ebp-216]
	mov	ecx, 51					; 00000033H
	mov	eax, -858993460				; ccccccccH
	rep stosd
	pop	ecx
	mov	eax, DWORD PTR ___security_cookie
	xor	eax, ebp
	push	eax
	lea	eax, DWORD PTR __$EHRec$[ebp]
	mov	DWORD PTR fs:0, eax
	mov	DWORD PTR _this$[ebp], ecx
	mov	ecx, OFFSET __EF3496CC_optional
	call	@__CheckForDebuggerJustMyCode@4
; Line 343
	mov	eax, DWORD PTR _this$[ebp]
	mov	al, BYTE PTR [eax+8]
; Line 344
	mov	ecx, DWORD PTR __$EHRec$[ebp]
	mov	DWORD PTR fs:0, ecx
	pop	ecx
	pop	edi
	pop	esi
	pop	ebx
	add	esp, 216				; 000000d8H
	cmp	ebp, esp
	call	__RTC_CheckEsp
	mov	esp, ebp
	pop	ebp
	ret	0
_TEXT	ENDS
;	COMDAT text$x
text$x	SEGMENT
__ehhandler$?has_value@?$optional@U?$pair@HH@std@@@std@@QBE_NXZ:
	mov	edx, DWORD PTR [esp+8]
	lea	eax, DWORD PTR [edx+12]
	mov	ecx, DWORD PTR [edx-220]
	xor	ecx, eax
	call	@__security_check_cookie@4
	mov	eax, OFFSET __ehfuncinfo$?has_value@?$optional@U?$pair@HH@std@@@std@@QBE_NXZ
	jmp	___CxxFrameHandler3
text$x	ENDS
?has_value@?$optional@U?$pair@HH@std@@@std@@QBE_NXZ ENDP ; std::optional<std::pair<int,int> >::has_value
; Function compile flags: /Odtp /RTCsu /ZI
;	COMDAT ??0?$optional@U?$pair@HH@std@@@std@@QAE@XZ
_TEXT	SEGMENT
_this$ = -20						; size = 4
__$EHRec$ = -12						; size = 12
??0?$optional@U?$pair@HH@std@@@std@@QAE@XZ PROC		; std::optional<std::pair<int,int> >::optional<std::pair<int,int> >, COMDAT
; _this$ = ecx
; File C:\Program Files (x86)\Microsoft Visual Studio\2019\Community\VC\Tools\MSVC\14.23.28105\include\optional
; Line 178
	push	ebp
	mov	ebp, esp
	push	-1
	push	__ehhandler$??0?$optional@U?$pair@HH@std@@@std@@QAE@XZ
	mov	eax, DWORD PTR fs:0
	push	eax
	sub	esp, 204				; 000000ccH
	push	ebx
	push	esi
	push	edi
	push	ecx
	lea	edi, DWORD PTR [ebp-216]
	mov	ecx, 51					; 00000033H
	mov	eax, -858993460				; ccccccccH
	rep stosd
	pop	ecx
	mov	eax, DWORD PTR ___security_cookie
	xor	eax, ebp
	push	eax
	lea	eax, DWORD PTR __$EHRec$[ebp]
	mov	DWORD PTR fs:0, eax
	mov	DWORD PTR _this$[ebp], ecx
	mov	ecx, OFFSET __EF3496CC_optional
	call	@__CheckForDebuggerJustMyCode@4
	xor	eax, eax
	mov	ecx, DWORD PTR _this$[ebp]
	mov	DWORD PTR [ecx], eax
	mov	DWORD PTR [ecx+4], eax
	mov	DWORD PTR [ecx+8], eax
	mov	ecx, DWORD PTR _this$[ebp]
	call	??0?$_Non_trivial_move_assign@U?$_Optional_construct_base@U?$pair@HH@std@@@std@@U?$pair@HH@2@@std@@QAE@XZ ; std::_Non_trivial_move_assign<std::_Optional_construct_base<std::pair<int,int> >,std::pair<int,int> >::_Non_trivial_move_assign<std::_Optional_construct_base<std::pair<int,int> >,std::pair<int,int> >
; Line 179
	mov	eax, DWORD PTR _this$[ebp]
	mov	ecx, DWORD PTR __$EHRec$[ebp]
	mov	DWORD PTR fs:0, ecx
	pop	ecx
	pop	edi
	pop	esi
	pop	ebx
	add	esp, 216				; 000000d8H
	cmp	ebp, esp
	call	__RTC_CheckEsp
	mov	esp, ebp
	pop	ebp
	ret	0
_TEXT	ENDS
;	COMDAT text$x
text$x	SEGMENT
__ehhandler$??0?$optional@U?$pair@HH@std@@@std@@QAE@XZ:
	mov	edx, DWORD PTR [esp+8]
	lea	eax, DWORD PTR [edx+12]
	mov	ecx, DWORD PTR [edx-220]
	xor	ecx, eax
	call	@__security_check_cookie@4
	mov	eax, OFFSET __ehfuncinfo$??0?$optional@U?$pair@HH@std@@@std@@QAE@XZ
	jmp	___CxxFrameHandler3
text$x	ENDS
??0?$optional@U?$pair@HH@std@@@std@@QAE@XZ ENDP		; std::optional<std::pair<int,int> >::optional<std::pair<int,int> >
; Function compile flags: /Odtp /RTCsu /ZI
;	COMDAT ??0?$_Non_trivial_move_assign@U?$_Optional_construct_base@U?$pair@HH@std@@@std@@U?$pair@HH@2@@std@@QAE@XZ
_TEXT	SEGMENT
_this$ = -20						; size = 4
__$EHRec$ = -12						; size = 12
??0?$_Non_trivial_move_assign@U?$_Optional_construct_base@U?$pair@HH@std@@@std@@U?$pair@HH@2@@std@@QAE@XZ PROC ; std::_Non_trivial_move_assign<std::_Optional_construct_base<std::pair<int,int> >,std::pair<int,int> >::_Non_trivial_move_assign<std::_Optional_construct_base<std::pair<int,int> >,std::pair<int,int> >, COMDAT
; _this$ = ecx
; File C:\github\JimFawcett\CppStory\Chapter1-overloading\Overloading.cpp
; Line 83
	push	ebp
	mov	ebp, esp
	push	-1
	push	__ehhandler$??0?$_Non_trivial_move_assign@U?$_Optional_construct_base@U?$pair@HH@std@@@std@@U?$pair@HH@2@@std@@QAE@XZ
	mov	eax, DWORD PTR fs:0
	push	eax
	sub	esp, 204				; 000000ccH
	push	ebx
	push	esi
	push	edi
	push	ecx
	lea	edi, DWORD PTR [ebp-216]
	mov	ecx, 51					; 00000033H
	mov	eax, -858993460				; ccccccccH
	rep stosd
	pop	ecx
	mov	eax, DWORD PTR ___security_cookie
	xor	eax, ebp
	push	eax
	lea	eax, DWORD PTR __$EHRec$[ebp]
	mov	DWORD PTR fs:0, eax
	mov	DWORD PTR _this$[ebp], ecx
	mov	ecx, OFFSET __559208D6_Overloading@cpp
	call	@__CheckForDebuggerJustMyCode@4
	mov	ecx, DWORD PTR _this$[ebp]
	call	??0?$_Non_trivial_copy_assign@U?$_Optional_construct_base@U?$pair@HH@std@@@std@@U?$pair@HH@2@@std@@QAE@XZ ; std::_Non_trivial_copy_assign<std::_Optional_construct_base<std::pair<int,int> >,std::pair<int,int> >::_Non_trivial_copy_assign<std::_Optional_construct_base<std::pair<int,int> >,std::pair<int,int> >
	mov	eax, DWORD PTR _this$[ebp]
	mov	ecx, DWORD PTR __$EHRec$[ebp]
	mov	DWORD PTR fs:0, ecx
	pop	ecx
	pop	edi
	pop	esi
	pop	ebx
	add	esp, 216				; 000000d8H
	cmp	ebp, esp
	call	__RTC_CheckEsp
	mov	esp, ebp
	pop	ebp
	ret	0
_TEXT	ENDS
;	COMDAT text$x
text$x	SEGMENT
__ehhandler$??0?$_Non_trivial_move_assign@U?$_Optional_construct_base@U?$pair@HH@std@@@std@@U?$pair@HH@2@@std@@QAE@XZ:
	mov	edx, DWORD PTR [esp+8]
	lea	eax, DWORD PTR [edx+12]
	mov	ecx, DWORD PTR [edx-220]
	xor	ecx, eax
	call	@__security_check_cookie@4
	mov	eax, OFFSET __ehfuncinfo$??0?$_Non_trivial_move_assign@U?$_Optional_construct_base@U?$pair@HH@std@@@std@@U?$pair@HH@2@@std@@QAE@XZ
	jmp	___CxxFrameHandler3
text$x	ENDS
??0?$_Non_trivial_move_assign@U?$_Optional_construct_base@U?$pair@HH@std@@@std@@U?$pair@HH@2@@std@@QAE@XZ ENDP ; std::_Non_trivial_move_assign<std::_Optional_construct_base<std::pair<int,int> >,std::pair<int,int> >::_Non_trivial_move_assign<std::_Optional_construct_base<std::pair<int,int> >,std::pair<int,int> >
; Function compile flags: /Odtp /RTCsu /ZI
;	COMDAT ??0?$_Non_trivial_copy_assign@U?$_Optional_construct_base@U?$pair@HH@std@@@std@@U?$pair@HH@2@@std@@QAE@XZ
_TEXT	SEGMENT
_this$ = -20						; size = 4
__$EHRec$ = -12						; size = 12
??0?$_Non_trivial_copy_assign@U?$_Optional_construct_base@U?$pair@HH@std@@@std@@U?$pair@HH@2@@std@@QAE@XZ PROC ; std::_Non_trivial_copy_assign<std::_Optional_construct_base<std::pair<int,int> >,std::pair<int,int> >::_Non_trivial_copy_assign<std::_Optional_construct_base<std::pair<int,int> >,std::pair<int,int> >, COMDAT
; _this$ = ecx
; File C:\github\JimFawcett\CppStory\Chapter1-overloading\Overloading.cpp
; Line 83
	push	ebp
	mov	ebp, esp
	push	-1
	push	__ehhandler$??0?$_Non_trivial_copy_assign@U?$_Optional_construct_base@U?$pair@HH@std@@@std@@U?$pair@HH@2@@std@@QAE@XZ
	mov	eax, DWORD PTR fs:0
	push	eax
	sub	esp, 204				; 000000ccH
	push	ebx
	push	esi
	push	edi
	push	ecx
	lea	edi, DWORD PTR [ebp-216]
	mov	ecx, 51					; 00000033H
	mov	eax, -858993460				; ccccccccH
	rep stosd
	pop	ecx
	mov	eax, DWORD PTR ___security_cookie
	xor	eax, ebp
	push	eax
	lea	eax, DWORD PTR __$EHRec$[ebp]
	mov	DWORD PTR fs:0, eax
	mov	DWORD PTR _this$[ebp], ecx
	mov	ecx, OFFSET __559208D6_Overloading@cpp
	call	@__CheckForDebuggerJustMyCode@4
	mov	ecx, DWORD PTR _this$[ebp]
	call	??0?$_Optional_construct_base@U?$pair@HH@std@@@std@@QAE@XZ
	mov	eax, DWORD PTR _this$[ebp]
	mov	ecx, DWORD PTR __$EHRec$[ebp]
	mov	DWORD PTR fs:0, ecx
	pop	ecx
	pop	edi
	pop	esi
	pop	ebx
	add	esp, 216				; 000000d8H
	cmp	ebp, esp
	call	__RTC_CheckEsp
	mov	esp, ebp
	pop	ebp
	ret	0
_TEXT	ENDS
;	COMDAT text$x
text$x	SEGMENT
__ehhandler$??0?$_Non_trivial_copy_assign@U?$_Optional_construct_base@U?$pair@HH@std@@@std@@U?$pair@HH@2@@std@@QAE@XZ:
	mov	edx, DWORD PTR [esp+8]
	lea	eax, DWORD PTR [edx+12]
	mov	ecx, DWORD PTR [edx-220]
	xor	ecx, eax
	call	@__security_check_cookie@4
	mov	eax, OFFSET __ehfuncinfo$??0?$_Non_trivial_copy_assign@U?$_Optional_construct_base@U?$pair@HH@std@@@std@@U?$pair@HH@2@@std@@QAE@XZ
	jmp	___CxxFrameHandler3
text$x	ENDS
??0?$_Non_trivial_copy_assign@U?$_Optional_construct_base@U?$pair@HH@std@@@std@@U?$pair@HH@2@@std@@QAE@XZ ENDP ; std::_Non_trivial_copy_assign<std::_Optional_construct_base<std::pair<int,int> >,std::pair<int,int> >::_Non_trivial_copy_assign<std::_Optional_construct_base<std::pair<int,int> >,std::pair<int,int> >
; Function compile flags: /Odtp /RTCsu /ZI
;	COMDAT ??0?$_Optional_construct_base@U?$pair@HH@std@@@std@@QAE@XZ
_TEXT	SEGMENT
_this$ = -8						; size = 4
??0?$_Optional_construct_base@U?$pair@HH@std@@@std@@QAE@XZ PROC ; std::_Optional_construct_base<std::pair<int,int> >::_Optional_construct_base<std::pair<int,int> >, COMDAT
; _this$ = ecx
	push	ebp
	mov	ebp, esp
	sub	esp, 204				; 000000ccH
	push	ebx
	push	esi
	push	edi
	push	ecx
	lea	edi, DWORD PTR [ebp-204]
	mov	ecx, 51					; 00000033H
	mov	eax, -858993460				; ccccccccH
	rep stosd
	pop	ecx
	mov	DWORD PTR _this$[ebp], ecx
	mov	ecx, DWORD PTR _this$[ebp]
	call	??0?$_Optional_destruct_base@U?$pair@HH@std@@$00@std@@QAE@XZ ; std::_Optional_destruct_base<std::pair<int,int>,1>::_Optional_destruct_base<std::pair<int,int>,1>
	mov	eax, DWORD PTR _this$[ebp]
	pop	edi
	pop	esi
	pop	ebx
	add	esp, 204				; 000000ccH
	cmp	ebp, esp
	call	__RTC_CheckEsp
	mov	esp, ebp
	pop	ebp
	ret	0
??0?$_Optional_construct_base@U?$pair@HH@std@@@std@@QAE@XZ ENDP ; std::_Optional_construct_base<std::pair<int,int> >::_Optional_construct_base<std::pair<int,int> >
_TEXT	ENDS
; Function compile flags: /Odtp /RTCsu /ZI
;	COMDAT ?_Get@?$_Optional_construct_base@U?$pair@HH@std@@@std@@QGAEAAU?$pair@HH@2@XZ
_TEXT	SEGMENT
_this$ = -20						; size = 4
__$EHRec$ = -12						; size = 12
?_Get@?$_Optional_construct_base@U?$pair@HH@std@@@std@@QGAEAAU?$pair@HH@2@XZ PROC ; std::_Optional_construct_base<std::pair<int,int> >::_Get, COMDAT
; _this$ = ecx
; File C:\Program Files (x86)\Microsoft Visual Studio\2019\Community\VC\Tools\MSVC\14.23.28105\include\optional
; Line 150
	push	ebp
	mov	ebp, esp
	push	-1
	push	__ehhandler$?_Get@?$_Optional_construct_base@U?$pair@HH@std@@@std@@QGAEAAU?$pair@HH@2@XZ
	mov	eax, DWORD PTR fs:0
	push	eax
	sub	esp, 204				; 000000ccH
	push	ebx
	push	esi
	push	edi
	push	ecx
	lea	edi, DWORD PTR [ebp-216]
	mov	ecx, 51					; 00000033H
	mov	eax, -858993460				; ccccccccH
	rep stosd
	pop	ecx
	mov	eax, DWORD PTR ___security_cookie
	xor	eax, ebp
	push	eax
	lea	eax, DWORD PTR __$EHRec$[ebp]
	mov	DWORD PTR fs:0, eax
	mov	DWORD PTR _this$[ebp], ecx
	mov	ecx, OFFSET __EF3496CC_optional
	call	@__CheckForDebuggerJustMyCode@4
; Line 151
	mov	eax, DWORD PTR _this$[ebp]
; Line 152
	mov	ecx, DWORD PTR __$EHRec$[ebp]
	mov	DWORD PTR fs:0, ecx
	pop	ecx
	pop	edi
	pop	esi
	pop	ebx
	add	esp, 216				; 000000d8H
	cmp	ebp, esp
	call	__RTC_CheckEsp
	mov	esp, ebp
	pop	ebp
	ret	0
_TEXT	ENDS
;	COMDAT text$x
text$x	SEGMENT
__ehhandler$?_Get@?$_Optional_construct_base@U?$pair@HH@std@@@std@@QGAEAAU?$pair@HH@2@XZ:
	mov	edx, DWORD PTR [esp+8]
	lea	eax, DWORD PTR [edx+12]
	mov	ecx, DWORD PTR [edx-220]
	xor	ecx, eax
	call	@__security_check_cookie@4
	mov	eax, OFFSET __ehfuncinfo$?_Get@?$_Optional_construct_base@U?$pair@HH@std@@@std@@QGAEAAU?$pair@HH@2@XZ
	jmp	___CxxFrameHandler3
text$x	ENDS
?_Get@?$_Optional_construct_base@U?$pair@HH@std@@@std@@QGAEAAU?$pair@HH@2@XZ ENDP ; std::_Optional_construct_base<std::pair<int,int> >::_Get
; Function compile flags: /Odtp /RTCsu /ZI
;	COMDAT ??0?$_Optional_destruct_base@U?$pair@HH@std@@$00@std@@QAE@XZ
_TEXT	SEGMENT
_this$ = -20						; size = 4
__$EHRec$ = -12						; size = 12
??0?$_Optional_destruct_base@U?$pair@HH@std@@$00@std@@QAE@XZ PROC ; std::_Optional_destruct_base<std::pair<int,int>,1>::_Optional_destruct_base<std::pair<int,int>,1>, COMDAT
; _this$ = ecx
; File C:\Program Files (x86)\Microsoft Visual Studio\2019\Community\VC\Tools\MSVC\14.23.28105\include\optional
; Line 60
	push	ebp
	mov	ebp, esp
	push	-1
	push	__ehhandler$??0?$_Optional_destruct_base@U?$pair@HH@std@@$00@std@@QAE@XZ
	mov	eax, DWORD PTR fs:0
	push	eax
	sub	esp, 204				; 000000ccH
	push	ebx
	push	esi
	push	edi
	push	ecx
	lea	edi, DWORD PTR [ebp-216]
	mov	ecx, 51					; 00000033H
	mov	eax, -858993460				; ccccccccH
	rep stosd
	pop	ecx
	mov	eax, DWORD PTR ___security_cookie
	xor	eax, ebp
	push	eax
	lea	eax, DWORD PTR __$EHRec$[ebp]
	mov	DWORD PTR fs:0, eax
	mov	DWORD PTR _this$[ebp], ecx
	mov	ecx, OFFSET __EF3496CC_optional
	call	@__CheckForDebuggerJustMyCode@4
	mov	eax, DWORD PTR _this$[ebp]
	mov	BYTE PTR [eax], 0
	mov	eax, DWORD PTR _this$[ebp]
	mov	BYTE PTR [eax+8], 0
; Line 61
	mov	eax, DWORD PTR _this$[ebp]
	mov	ecx, DWORD PTR __$EHRec$[ebp]
	mov	DWORD PTR fs:0, ecx
	pop	ecx
	pop	edi
	pop	esi
	pop	ebx
	add	esp, 216				; 000000d8H
	cmp	ebp, esp
	call	__RTC_CheckEsp
	mov	esp, ebp
	pop	ebp
	ret	0
_TEXT	ENDS
;	COMDAT text$x
text$x	SEGMENT
__ehhandler$??0?$_Optional_destruct_base@U?$pair@HH@std@@$00@std@@QAE@XZ:
	mov	edx, DWORD PTR [esp+8]
	lea	eax, DWORD PTR [edx+12]
	mov	ecx, DWORD PTR [edx-220]
	xor	ecx, eax
	call	@__security_check_cookie@4
	mov	eax, OFFSET __ehfuncinfo$??0?$_Optional_destruct_base@U?$pair@HH@std@@$00@std@@QAE@XZ
	jmp	___CxxFrameHandler3
text$x	ENDS
??0?$_Optional_destruct_base@U?$pair@HH@std@@$00@std@@QAE@XZ ENDP ; std::_Optional_destruct_base<std::pair<int,int>,1>::_Optional_destruct_base<std::pair<int,int>,1>
; Function compile flags: /Odtp /RTCsu /ZI
;	COMDAT ??$?4U?$pair@HH@std@@$0A@@?$pair@HH@std@@QAEAAU01@$$QAU01@@Z
_TEXT	SEGMENT
_this$ = -20						; size = 4
__$EHRec$ = -12						; size = 12
__Right$ = 8						; size = 4
??$?4U?$pair@HH@std@@$0A@@?$pair@HH@std@@QAEAAU01@$$QAU01@@Z PROC ; std::pair<int,int>::operator=<std::pair<int,int>,0>, COMDAT
; _this$ = ecx
; File C:\Program Files (x86)\Microsoft Visual Studio\2019\Community\VC\Tools\MSVC\14.23.28105\include\utility
; Line 199
	push	ebp
	mov	ebp, esp
	push	-1
	push	__ehhandler$??$?4U?$pair@HH@std@@$0A@@?$pair@HH@std@@QAEAAU01@$$QAU01@@Z
	mov	eax, DWORD PTR fs:0
	push	eax
	sub	esp, 204				; 000000ccH
	push	ebx
	push	esi
	push	edi
	push	ecx
	lea	edi, DWORD PTR [ebp-216]
	mov	ecx, 51					; 00000033H
	mov	eax, -858993460				; ccccccccH
	rep stosd
	pop	ecx
	mov	eax, DWORD PTR ___security_cookie
	xor	eax, ebp
	push	eax
	lea	eax, DWORD PTR __$EHRec$[ebp]
	mov	DWORD PTR fs:0, eax
	mov	DWORD PTR _this$[ebp], ecx
	mov	ecx, OFFSET __B1DBDA87_utility
	call	@__CheckForDebuggerJustMyCode@4
; Line 202
	mov	eax, DWORD PTR __Right$[ebp]
	push	eax
	call	??$forward@H@std@@YA$$QAHAAH@Z		; std::forward<int>
	add	esp, 4
	mov	ecx, DWORD PTR _this$[ebp]
	mov	edx, DWORD PTR [eax]
	mov	DWORD PTR [ecx], edx
; Line 203
	mov	eax, DWORD PTR __Right$[ebp]
	add	eax, 4
	push	eax
	call	??$forward@H@std@@YA$$QAHAAH@Z		; std::forward<int>
	add	esp, 4
	mov	ecx, DWORD PTR _this$[ebp]
	mov	edx, DWORD PTR [eax]
	mov	DWORD PTR [ecx+4], edx
; Line 204
	mov	eax, DWORD PTR _this$[ebp]
; Line 205
	mov	ecx, DWORD PTR __$EHRec$[ebp]
	mov	DWORD PTR fs:0, ecx
	pop	ecx
	pop	edi
	pop	esi
	pop	ebx
	add	esp, 216				; 000000d8H
	cmp	ebp, esp
	call	__RTC_CheckEsp
	mov	esp, ebp
	pop	ebp
	ret	4
_TEXT	ENDS
;	COMDAT text$x
text$x	SEGMENT
__ehhandler$??$?4U?$pair@HH@std@@$0A@@?$pair@HH@std@@QAEAAU01@$$QAU01@@Z:
	mov	edx, DWORD PTR [esp+8]
	lea	eax, DWORD PTR [edx+12]
	mov	ecx, DWORD PTR [edx-220]
	xor	ecx, eax
	call	@__security_check_cookie@4
	mov	eax, OFFSET __ehfuncinfo$??$?4U?$pair@HH@std@@$0A@@?$pair@HH@std@@QAEAAU01@$$QAU01@@Z
	jmp	___CxxFrameHandler3
text$x	ENDS
??$?4U?$pair@HH@std@@$0A@@?$pair@HH@std@@QAEAAU01@$$QAU01@@Z ENDP ; std::pair<int,int>::operator=<std::pair<int,int>,0>
; Function compile flags: /Odtp /RTCsu /ZI
;	COMDAT ?firstAndLastOpt@@YA?AV?$optional@U?$pair@HH@std@@@std@@ABV?$vector@HV?$allocator@H@std@@@2@@Z
_TEXT	SEGMENT
tv86 = -240						; size = 4
tv84 = -236						; size = 4
$T1 = -228						; size = 8
_opt$ = -20						; size = 12
__$ArrayPad$ = -4					; size = 4
___$ReturnUdt$ = 8					; size = 4
_vecInt$ = 12						; size = 4
?firstAndLastOpt@@YA?AV?$optional@U?$pair@HH@std@@@std@@ABV?$vector@HV?$allocator@H@std@@@2@@Z PROC ; firstAndLastOpt, COMDAT
; File C:\github\JimFawcett\CppStory\Chapter1-overloading\Overloading.cpp
; Line 35
	push	ebp
	mov	ebp, esp
	sub	esp, 240				; 000000f0H
	push	ebx
	push	esi
	push	edi
	lea	edi, DWORD PTR [ebp-240]
	mov	ecx, 60					; 0000003cH
	mov	eax, -858993460				; ccccccccH
	rep stosd
	mov	eax, DWORD PTR ___security_cookie
	xor	eax, ebp
	mov	DWORD PTR __$ArrayPad$[ebp], eax
	mov	ecx, OFFSET __559208D6_Overloading@cpp
	call	@__CheckForDebuggerJustMyCode@4
; Line 36
	lea	ecx, DWORD PTR _opt$[ebp]
	call	??0?$optional@U?$pair@HH@std@@@std@@QAE@XZ ; std::optional<std::pair<int,int> >::optional<std::pair<int,int> >
; Line 37
	mov	ecx, DWORD PTR _vecInt$[ebp]
	call	?size@?$vector@HV?$allocator@H@std@@@std@@QBEIXZ ; std::vector<int,std::allocator<int> >::size
	test	eax, eax
	jbe	SHORT $LN2@firstAndLa
; Line 38
	push	0
	mov	ecx, DWORD PTR _vecInt$[ebp]
	call	??A?$vector@HV?$allocator@H@std@@@std@@QBEABHI@Z ; std::vector<int,std::allocator<int> >::operator[]
	mov	DWORD PTR tv84[ebp], eax
	mov	ecx, DWORD PTR _vecInt$[ebp]
	call	?size@?$vector@HV?$allocator@H@std@@@std@@QBEIXZ ; std::vector<int,std::allocator<int> >::size
	sub	eax, 1
	push	eax
	mov	ecx, DWORD PTR _vecInt$[ebp]
	call	??A?$vector@HV?$allocator@H@std@@@std@@QBEABHI@Z ; std::vector<int,std::allocator<int> >::operator[]
	mov	DWORD PTR tv86[ebp], eax
	mov	eax, DWORD PTR tv86[ebp]
	push	eax
	mov	ecx, DWORD PTR tv84[ebp]
	push	ecx
	lea	ecx, DWORD PTR $T1[ebp]
	call	??$?0HH$0A@@?$pair@HH@std@@QAE@ABH0@Z	; std::pair<int,int>::pair<int,int><int,int,0>
	push	eax
	lea	ecx, DWORD PTR _opt$[ebp]
	call	??$?4U?$pair@HH@std@@X@?$optional@U?$pair@HH@std@@@std@@QAEAAV01@$$QAU?$pair@HH@1@@Z ; std::optional<std::pair<int,int> >::operator=<std::pair<int,int>,void>
$LN2@firstAndLa:
; Line 39
	mov	eax, DWORD PTR ___$ReturnUdt$[ebp]
	mov	ecx, DWORD PTR _opt$[ebp]
	mov	DWORD PTR [eax], ecx
	mov	edx, DWORD PTR _opt$[ebp+4]
	mov	DWORD PTR [eax+4], edx
	mov	ecx, DWORD PTR _opt$[ebp+8]
	mov	DWORD PTR [eax+8], ecx
	mov	eax, DWORD PTR ___$ReturnUdt$[ebp]
; Line 40
	push	edx
	mov	ecx, ebp
	push	eax
	lea	edx, DWORD PTR $LN6@firstAndLa
	call	@_RTC_CheckStackVars@8
	pop	eax
	pop	edx
	pop	edi
	pop	esi
	pop	ebx
	mov	ecx, DWORD PTR __$ArrayPad$[ebp]
	xor	ecx, ebp
	call	@__security_check_cookie@4
	add	esp, 240				; 000000f0H
	cmp	ebp, esp
	call	__RTC_CheckEsp
	mov	esp, ebp
	pop	ebp
	ret	0
$LN6@firstAndLa:
	DD	1
	DD	$LN5@firstAndLa
$LN5@firstAndLa:
	DD	-20					; ffffffecH
	DD	12					; 0000000cH
	DD	$LN4@firstAndLa
$LN4@firstAndLa:
	DB	111					; 0000006fH
	DB	112					; 00000070H
	DB	116					; 00000074H
	DB	0
?firstAndLastOpt@@YA?AV?$optional@U?$pair@HH@std@@@std@@ABV?$vector@HV?$allocator@H@std@@@2@@Z ENDP ; firstAndLastOpt
_TEXT	ENDS
; Function compile flags: /Odtp /RTCsu /ZI
;	COMDAT ??$?4U?$pair@NN@std@@X@?$optional@U?$pair@NN@std@@@std@@QAEAAV01@$$QAU?$pair@NN@1@@Z
_TEXT	SEGMENT
_this$ = -8						; size = 4
__Right$ = 8						; size = 4
??$?4U?$pair@NN@std@@X@?$optional@U?$pair@NN@std@@@std@@QAEAAV01@$$QAU?$pair@NN@1@@Z PROC ; std::optional<std::pair<double,double> >::operator=<std::pair<double,double>,void>, COMDAT
; _this$ = ecx
; File C:\Program Files (x86)\Microsoft Visual Studio\2019\Community\VC\Tools\MSVC\14.23.28105\include\optional
; Line 259
	push	ebp
	mov	ebp, esp
	sub	esp, 204				; 000000ccH
	push	ebx
	push	esi
	push	edi
	push	ecx
	lea	edi, DWORD PTR [ebp-204]
	mov	ecx, 51					; 00000033H
	mov	eax, -858993460				; ccccccccH
	rep stosd
	pop	ecx
	mov	DWORD PTR _this$[ebp], ecx
	mov	ecx, OFFSET __EF3496CC_optional
	call	@__CheckForDebuggerJustMyCode@4
; Line 260
	mov	eax, DWORD PTR __Right$[ebp]
	push	eax
	call	??$forward@U?$pair@NN@std@@@std@@YA$$QAU?$pair@NN@0@AAU10@@Z ; std::forward<std::pair<double,double> >
	add	esp, 4
	push	eax
	mov	ecx, DWORD PTR _this$[ebp]
	call	??$_Assign@U?$pair@NN@std@@@?$_Optional_construct_base@U?$pair@NN@std@@@std@@QAEX$$QAU?$pair@NN@1@@Z ; std::_Optional_construct_base<std::pair<double,double> >::_Assign<std::pair<double,double> >
; Line 261
	mov	eax, DWORD PTR _this$[ebp]
; Line 262
	pop	edi
	pop	esi
	pop	ebx
	add	esp, 204				; 000000ccH
	cmp	ebp, esp
	call	__RTC_CheckEsp
	mov	esp, ebp
	pop	ebp
	ret	4
??$?4U?$pair@NN@std@@X@?$optional@U?$pair@NN@std@@@std@@QAEAAV01@$$QAU?$pair@NN@1@@Z ENDP ; std::optional<std::pair<double,double> >::operator=<std::pair<double,double>,void>
_TEXT	ENDS
; Function compile flags: /Odtp /RTCsu /ZI
;	COMDAT ?value@?$optional@U?$pair@NN@std@@@std@@QGAEAAU?$pair@NN@2@XZ
_TEXT	SEGMENT
_this$ = -8						; size = 4
?value@?$optional@U?$pair@NN@std@@@std@@QGAEAAU?$pair@NN@2@XZ PROC ; std::optional<std::pair<double,double> >::value, COMDAT
; _this$ = ecx
; File C:\Program Files (x86)\Microsoft Visual Studio\2019\Community\VC\Tools\MSVC\14.23.28105\include\optional
; Line 353
	push	ebp
	mov	ebp, esp
	sub	esp, 204				; 000000ccH
	push	ebx
	push	esi
	push	edi
	push	ecx
	lea	edi, DWORD PTR [ebp-204]
	mov	ecx, 51					; 00000033H
	mov	eax, -858993460				; ccccccccH
	rep stosd
	pop	ecx
	mov	DWORD PTR _this$[ebp], ecx
	mov	ecx, OFFSET __EF3496CC_optional
	call	@__CheckForDebuggerJustMyCode@4
; Line 354
	mov	ecx, DWORD PTR _this$[ebp]
	call	?has_value@?$optional@U?$pair@NN@std@@@std@@QBE_NXZ ; std::optional<std::pair<double,double> >::has_value
	movzx	eax, al
	test	eax, eax
	jne	SHORT $LN2@value
; Line 355
	call	?_Throw_bad_optional_access@std@@YAXXZ	; std::_Throw_bad_optional_access
$LN2@value:
; Line 358
	mov	ecx, DWORD PTR _this$[ebp]
	call	?_Get@?$_Optional_construct_base@U?$pair@NN@std@@@std@@QGAEAAU?$pair@NN@2@XZ ; std::_Optional_construct_base<std::pair<double,double> >::_Get
$LN3@value:
; Line 359
	pop	edi
	pop	esi
	pop	ebx
	add	esp, 204				; 000000ccH
	cmp	ebp, esp
	call	__RTC_CheckEsp
	mov	esp, ebp
	pop	ebp
	ret	0
?value@?$optional@U?$pair@NN@std@@@std@@QGAEAAU?$pair@NN@2@XZ ENDP ; std::optional<std::pair<double,double> >::value
_TEXT	ENDS
; Function compile flags: /Odtp /RTCsu /ZI
;	COMDAT ?has_value@?$optional@U?$pair@NN@std@@@std@@QBE_NXZ
_TEXT	SEGMENT
_this$ = -20						; size = 4
__$EHRec$ = -12						; size = 12
?has_value@?$optional@U?$pair@NN@std@@@std@@QBE_NXZ PROC ; std::optional<std::pair<double,double> >::has_value, COMDAT
; _this$ = ecx
; File C:\Program Files (x86)\Microsoft Visual Studio\2019\Community\VC\Tools\MSVC\14.23.28105\include\optional
; Line 342
	push	ebp
	mov	ebp, esp
	push	-1
	push	__ehhandler$?has_value@?$optional@U?$pair@NN@std@@@std@@QBE_NXZ
	mov	eax, DWORD PTR fs:0
	push	eax
	sub	esp, 204				; 000000ccH
	push	ebx
	push	esi
	push	edi
	push	ecx
	lea	edi, DWORD PTR [ebp-216]
	mov	ecx, 51					; 00000033H
	mov	eax, -858993460				; ccccccccH
	rep stosd
	pop	ecx
	mov	eax, DWORD PTR ___security_cookie
	xor	eax, ebp
	push	eax
	lea	eax, DWORD PTR __$EHRec$[ebp]
	mov	DWORD PTR fs:0, eax
	mov	DWORD PTR _this$[ebp], ecx
	mov	ecx, OFFSET __EF3496CC_optional
	call	@__CheckForDebuggerJustMyCode@4
; Line 343
	mov	eax, DWORD PTR _this$[ebp]
	mov	al, BYTE PTR [eax+16]
; Line 344
	mov	ecx, DWORD PTR __$EHRec$[ebp]
	mov	DWORD PTR fs:0, ecx
	pop	ecx
	pop	edi
	pop	esi
	pop	ebx
	add	esp, 216				; 000000d8H
	cmp	ebp, esp
	call	__RTC_CheckEsp
	mov	esp, ebp
	pop	ebp
	ret	0
_TEXT	ENDS
;	COMDAT text$x
text$x	SEGMENT
__ehhandler$?has_value@?$optional@U?$pair@NN@std@@@std@@QBE_NXZ:
	mov	edx, DWORD PTR [esp+8]
	lea	eax, DWORD PTR [edx+12]
	mov	ecx, DWORD PTR [edx-220]
	xor	ecx, eax
	call	@__security_check_cookie@4
	mov	eax, OFFSET __ehfuncinfo$?has_value@?$optional@U?$pair@NN@std@@@std@@QBE_NXZ
	jmp	___CxxFrameHandler3
text$x	ENDS
?has_value@?$optional@U?$pair@NN@std@@@std@@QBE_NXZ ENDP ; std::optional<std::pair<double,double> >::has_value
; Function compile flags: /Odtp /RTCsu /ZI
;	COMDAT ??0?$optional@U?$pair@NN@std@@@std@@QAE@XZ
_TEXT	SEGMENT
_this$ = -20						; size = 4
__$EHRec$ = -12						; size = 12
??0?$optional@U?$pair@NN@std@@@std@@QAE@XZ PROC		; std::optional<std::pair<double,double> >::optional<std::pair<double,double> >, COMDAT
; _this$ = ecx
; File C:\Program Files (x86)\Microsoft Visual Studio\2019\Community\VC\Tools\MSVC\14.23.28105\include\optional
; Line 178
	push	ebp
	mov	ebp, esp
	push	-1
	push	__ehhandler$??0?$optional@U?$pair@NN@std@@@std@@QAE@XZ
	mov	eax, DWORD PTR fs:0
	push	eax
	sub	esp, 204				; 000000ccH
	push	ebx
	push	esi
	push	edi
	push	ecx
	lea	edi, DWORD PTR [ebp-216]
	mov	ecx, 51					; 00000033H
	mov	eax, -858993460				; ccccccccH
	rep stosd
	pop	ecx
	mov	eax, DWORD PTR ___security_cookie
	xor	eax, ebp
	push	eax
	lea	eax, DWORD PTR __$EHRec$[ebp]
	mov	DWORD PTR fs:0, eax
	mov	DWORD PTR _this$[ebp], ecx
	mov	ecx, OFFSET __EF3496CC_optional
	call	@__CheckForDebuggerJustMyCode@4
	xor	eax, eax
	mov	ecx, DWORD PTR _this$[ebp]
	mov	DWORD PTR [ecx], eax
	mov	DWORD PTR [ecx+4], eax
	mov	DWORD PTR [ecx+8], eax
	mov	DWORD PTR [ecx+12], eax
	mov	DWORD PTR [ecx+16], eax
	mov	DWORD PTR [ecx+20], eax
	mov	ecx, DWORD PTR _this$[ebp]
	call	??0?$_Non_trivial_move_assign@U?$_Optional_construct_base@U?$pair@NN@std@@@std@@U?$pair@NN@2@@std@@QAE@XZ ; std::_Non_trivial_move_assign<std::_Optional_construct_base<std::pair<double,double> >,std::pair<double,double> >::_Non_trivial_move_assign<std::_Optional_construct_base<std::pair<double,double> >,std::pair<double,double> >
; Line 179
	mov	eax, DWORD PTR _this$[ebp]
	mov	ecx, DWORD PTR __$EHRec$[ebp]
	mov	DWORD PTR fs:0, ecx
	pop	ecx
	pop	edi
	pop	esi
	pop	ebx
	add	esp, 216				; 000000d8H
	cmp	ebp, esp
	call	__RTC_CheckEsp
	mov	esp, ebp
	pop	ebp
	ret	0
_TEXT	ENDS
;	COMDAT text$x
text$x	SEGMENT
__ehhandler$??0?$optional@U?$pair@NN@std@@@std@@QAE@XZ:
	mov	edx, DWORD PTR [esp+8]
	lea	eax, DWORD PTR [edx+12]
	mov	ecx, DWORD PTR [edx-220]
	xor	ecx, eax
	call	@__security_check_cookie@4
	mov	eax, OFFSET __ehfuncinfo$??0?$optional@U?$pair@NN@std@@@std@@QAE@XZ
	jmp	___CxxFrameHandler3
text$x	ENDS
??0?$optional@U?$pair@NN@std@@@std@@QAE@XZ ENDP		; std::optional<std::pair<double,double> >::optional<std::pair<double,double> >
; Function compile flags: /Odtp /RTCsu /ZI
;	COMDAT ??0?$_Non_trivial_move_assign@U?$_Optional_construct_base@U?$pair@NN@std@@@std@@U?$pair@NN@2@@std@@QAE@XZ
_TEXT	SEGMENT
_this$ = -20						; size = 4
__$EHRec$ = -12						; size = 12
